(lp0
((dp1
S'any_word'
p2
S'baltimore'
p3
sS'city'
p4
tp5
a((dp6
g2
S'city'
p7
sg4
tp8
a((dp9
g2
S'maryland'
p10
sg4
tp11
a((dp12
g2
S'\xe2'
p13
sg4
tp14
a((dp15
g2
S'which'
p16
sg4
tp17
a((dp18
g2
S'its'
p19
sg4
tp20
a((dp21
g2
S'area'
p22
sg4
tp23
a((dp24
g2
S'march'
p25
sg4
tp26
a((dp27
g2
S'also'
p28
sg4
tp29
a((dp30
g2
S'states'
p31
sg4
tp32
a((dp33
g2
S'seattle'
p34
sg4
tp35
a((dp36
g2
S'city'
p37
sg4
tp38
a((dp39
g2
S'october'
p40
sg4
tp41
a((dp42
g2
S'washington'
p43
sg4
tp44
a((dp45
g2
S'\xe2'
p46
sg4
tp47
a((dp48
g2
S'also'
p49
sg4
tp50
a((dp51
g2
S'states'
p52
sg4
tp53
a((dp54
g2
S'united'
p55
sg4
tp56
a((dp57
g2
S'september'
p58
sg4
tp59
a((dp60
g2
S'center'
p61
sg4
tp62
a((dp63
g2
S'new'
p64
sg4
tp65
a((dp66
g2
S'york'
p67
sg4
tp68
a((dp69
g2
S'city'
p70
sg4
tp71
a((dp72
g2
S'united'
p73
sg4
tp74
a((dp75
g2
S'states'
p76
sg4
tp77
a((dp78
g2
S'park'
p79
sg4
tp80
a((dp81
g2
S'2008'
p82
sg4
tp83
a((dp84
g2
S'manhattan'
p85
sg4
tp86
a((dp87
g2
S'population'
p88
sg4
tp89
a((dp90
g2
S'september'
p91
sg4
tp92
a((dp93
g2
S'los'
p94
sg4
tp95
a((dp96
g2
S'angeles'
p97
sg4
tp98
a((dp99
g2
S'city'
p100
sg4
tp101
a((dp102
g2
S'california'
p103
sg4
tp104
a((dp105
g2
S'san'
p106
sg4
tp107
a((dp108
g2
S'\xe2'
p109
sg4
tp110
a((dp111
g2
S'\xc2'
p112
sg4
tp113
a((dp114
g2
S'valley'
p115
sg4
tp116
a((dp117
g2
S'area'
p118
sg4
tp119
a((dp120
g2
S'santa'
p121
sg4
tp122
a((dp123
g2
S'chicago'
p124
sg4
tp125
a((dp126
g2
S'city'
p127
sg4
tp128
a((dp129
g2
S'park'
p130
sg4
tp131
a((dp132
g2
S'illinois'
p133
sg4
tp134
a((dp135
g2
S'\xe2'
p136
sg4
tp137
a((dp138
g2
S'university'
p139
sg4
tp140
a((dp141
g2
S'also'
p142
sg4
tp143
a((dp144
g2
S'united'
p145
sg4
tp146
a((dp147
g2
S'cities'
p148
sg4
tp149
a((dp150
g2
S'\x80\xa1'
p151
sg4
tp152
a((dp153
g2
S'houston'
p154
sg4
tp155
a((dp156
g2
S'city'
p157
sg4
tp158
a((dp159
g2
S'texas'
p160
sg4
tp161
a((dp162
g2
S'\xe2'
p163
sg4
tp164
a((dp165
g2
S'center'
p166
sg4
tp167
a((dp168
g2
S'united'
p169
sg4
tp170
a((dp171
g2
S'area'
p172
sg4
tp173
a((dp174
g2
S'states'
p175
sg4
tp176
a((dp177
g2
S'university'
p178
sg4
tp179
a((dp180
g2
S'cities'
p181
sg4
tp182
a((dp183
g2
S'philadelphia'
p184
sg4
tp185
a((dp186
g2
S'city'
p187
sg4
tp188
a((dp189
g2
S'\xe2'
p190
sg4
tp191
a((dp192
g2
S'pennsylvania'
p193
sg4
tp194
a((dp195
g2
S'states'
p196
sg4
tp197
a((dp198
g2
S'united'
p199
sg4
tp200
a((dp201
g2
S'new'
p202
sg4
tp203
a((dp204
g2
S'cities'
p205
sg4
tp206
a((dp207
g2
S'park'
p208
sg4
tp209
a((dp210
g2
S'american'
p211
sg4
tp212
a((dp213
g2
S'phoenix'
p214
sg4
tp215
a((dp216
g2
S'arizona'
p217
sg4
tp218
a((dp219
g2
S'february'
p220
sg4
tp221
a((dp222
g2
S'city'
p223
sg4
tp224
a((dp225
g2
S'\xe2'
p226
sg4
tp227
a((dp228
g2
S'com'
p229
sg4
tp230
a((dp231
g2
S'area'
p232
sg4
tp233
a((dp234
g2
S'which'
p235
sg4
tp236
a((dp237
g2
S'state'
p238
sg4
tp239
a((dp240
g2
S'also'
p241
sg4
tp242
a((dp243
g2
S'san'
p244
sg4
tp245
a((dp246
g2
S'antonio'
p247
sg4
tp248
a((dp249
g2
S'city'
p250
sg4
tp251
a((dp252
g2
S'texas'
p253
sg4
tp254
a((dp255
g2
S'\xe2'
p256
sg4
tp257
a((dp258
g2
S'area'
p259
sg4
tp260
a((dp261
g2
S'its'
p262
sg4
tp263
a((dp264
g2
S'park'
p265
sg4
tp266
a((dp267
g2
S'alamo'
p268
sg4
tp269
a((dp270
g2
S'also'
p271
sg4
tp272
a((dp273
g2
S'san'
p274
sg4
tp275
a((dp276
g2
S'diego'
p277
sg4
tp278
a((dp279
g2
S'city'
p280
sg4
tp281
a((dp282
g2
S'california'
p283
sg4
tp284
a((dp285
g2
S'april'
p286
sg4
tp287
a((dp288
g2
S'county'
p289
sg4
tp290
a((dp291
g2
S'july'
p292
sg4
tp293
a((dp294
g2
S'may'
p295
sg4
tp296
a((dp297
g2
S'cities'
p298
sg4
tp299
a((dp300
g2
S'valley'
p301
sg4
tp302
a((dp303
g2
S'dallas'
p304
sg4
tp305
a((dp306
g2
S'city'
p307
sg4
tp308
a((dp309
g2
S'\xe2'
p310
sg4
tp311
a((dp312
g2
S'texas'
p313
sg4
tp314
a((dp315
g2
S'university'
p316
sg4
tp317
a((dp318
g2
S'district'
p319
sg4
tp320
a((dp321
g2
S'also'
p322
sg4
tp323
a((dp324
g2
S'\x80\xa1'
p325
sg4
tp326
a((dp327
g2
S'center'
p328
sg4
tp329
a((dp330
g2
S'area'
p331
sg4
tp332
a((dp333
g2
S'san'
p334
sg4
tp335
a((dp336
g2
S'jose'
p337
sg4
tp338
a((dp339
g2
S'city'
p340
sg4
tp341
a((dp342
g2
S'california'
p343
sg4
tp344
a((dp345
g2
S'valley'
p346
sg4
tp347
a((dp348
g2
S'santa'
p349
sg4
tp350
a((dp351
g2
S'park'
p352
sg4
tp353
a((dp354
g2
S'\xe2'
p355
sg4
tp356
a((dp357
g2
S'bay'
p358
sg4
tp359
a((dp360
g2
S'state'
p361
sg4
tp362
a((dp363
g2
S'austin'
p364
sg4
tp365
a((dp366
g2
S'texas'
p367
sg4
tp368
a((dp369
g2
S'city'
p370
sg4
tp371
a((dp372
g2
S'\xe2'
p373
sg4
tp374
a((dp375
g2
S'2008'
p376
sg4
tp377
a((dp378
g2
S'state'
p379
sg4
tp380
a((dp381
g2
S'university'
p382
sg4
tp383
a((dp384
g2
S'also'
p385
sg4
tp386
a((dp387
g2
S'area'
p388
sg4
tp389
a((dp390
g2
S'county'
p391
sg4
tp392
a((dp393
g2
S'jacksonville'
p394
sg4
tp395
a((dp396
g2
S'florida'
p397
sg4
tp398
a((dp399
g2
S'city'
p400
sg4
tp401
a((dp402
g2
S'center'
p403
sg4
tp404
a((dp405
g2
S'county'
p406
sg4
tp407
a((dp408
g2
S'state'
p409
sg4
tp410
a((dp411
g2
S'also'
p412
sg4
tp413
a((dp414
g2
S'states'
p415
sg4
tp416
a((dp417
g2
S'area'
p418
sg4
tp419
a((dp420
g2
S'park'
p421
sg4
tp422
a((dp423
g2
S'indianapolis'
p424
sg4
tp425
a((dp426
g2
S'city'
p427
sg4
tp428
a((dp429
g2
S'indiana'
p430
sg4
tp431
a((dp432
g2
S'county'
p433
sg4
tp434
a((dp435
g2
S'\xe2'
p436
sg4
tp437
a((dp438
g2
S'state'
p439
sg4
tp440
a((dp441
g2
S'percent'
p442
sg4
tp443
a((dp444
g2
S'area'
p445
sg4
tp446
a((dp447
g2
S'largest'
p448
sg4
tp449
a((dp450
g2
S'university'
p451
sg4
tp452
a((dp453
g2
S'newark'
p454
sg4
tp455
a((dp456
g2
S'new'
p457
sg4
tp458
a((dp459
g2
S'jersey'
p460
sg4
tp461
a((dp462
g2
S'city'
p463
sg4
tp464
a((dp465
g2
S'accessed'
p466
sg4
tp467
a((dp468
g2
S'county'
p469
sg4
tp470
a((dp471
g2
S'census'
p472
sg4
tp473
a((dp474
g2
S'essex'
p475
sg4
tp476
a((dp477
g2
S'york'
p478
sg4
tp479
a((dp480
g2
S'state'
p481
sg4
tp482
a((dp483
g2
S'wichita'
p484
sg4
tp485
a((dp486
g2
S'falls'
p487
sg4
tp488
a((dp489
g2
S'texas'
p490
sg4
tp491
a((dp492
g2
S'city'
p493
sg4
tp494
a((dp495
g2
S'\xe2'
p496
sg4
tp497
a((dp498
g2
S'company'
p499
sg4
tp500
a((dp501
g2
S'county'
p502
sg4
tp503
a((dp504
g2
S'park'
p505
sg4
tp506
a((dp507
g2
S'\xc2'
p508
sg4
tp509
a((dp510
g2
S'u'
p511
sg4
tp512
a((dp513
g2
S'burbank'
p514
sg4
tp515
a((dp516
g2
S'city'
p517
sg4
tp518
a((dp519
g2
S'may'
p520
sg4
tp521
a((dp522
g2
S'\xe2'
p523
sg4
tp524
a((dp525
g2
S'los'
p526
sg4
tp527
a((dp528
g2
S'angeles'
p529
sg4
tp530
a((dp531
g2
S'san'
p532
sg4
tp533
a((dp534
g2
S'california'
p535
sg4
tp536
a((dp537
g2
S'$'
p538
sg4
tp539
a((dp540
g2
S'were'
p541
sg4
tp542
a((dp543
g2
S'city'
p544
sg4
tp545
a((dp546
g2
S'florida'
p547
sg4
tp548
a((dp549
g2
S'palm'
p550
sg4
tp551
a((dp552
g2
S'bay'
p553
sg4
tp554
a((dp555
g2
S'melbourne'
p556
sg4
tp557
a((dp558
g2
S'today'
p559
sg4
tp560
a((dp561
g2
S'road'
p562
sg4
tp563
a((dp564
g2
S'school'
p565
sg4
tp566
a((dp567
g2
S'were'
p568
sg4
tp569
a((dp570
g2
S'pp'
p571
sg4
tp572
a((dp573
g2
S'beach'
p574
sg4
tp575
a((dp576
g2
S'pompano'
p577
sg4
tp578
a((dp579
g2
S'florida'
p580
sg4
tp581
a((dp582
g2
S'city'
p583
sg4
tp584
a((dp585
g2
S'population'
p586
sg4
tp587
a((dp588
g2
S'park'
p589
sg4
tp590
a((dp591
g2
S'%,'
p592
sg4
tp593
a((dp594
g2
S'miami'
p595
sg4
tp596
a((dp597
g2
S'professional'
p598
sg4
tp599
a((dp600
g2
S'\xe2'
p601
sg4
tp602
a((dp603
g2
S'kabul'
p604
sg4
tp605
a((dp606
g2
S'afghanistan'
p607
sg4
tp608
a((dp609
g2
S'city'
p610
sg4
tp611
a((dp612
g2
S'afghan'
p613
sg4
tp614
a((dp615
g2
S'\xe2'
p616
sg4
tp617
a((dp618
g2
S'\x81'
p619
sg4
tp620
a((dp621
g2
S'were'
p622
sg4
tp623
a((dp624
g2
S'which'
p625
sg4
tp626
a((dp627
g2
S'also'
p628
sg4
tp629
a((dp630
g2
S'taliban'
p631
sg4
tp632
a((dp633
g2
S'columbus'
p634
sg4
tp635
a((dp636
g2
S'ohio'
p637
sg4
tp638
a((dp639
g2
S'city'
p640
sg4
tp641
a((dp642
g2
S'\xe2'
p643
sg4
tp644
a((dp645
g2
S'state'
p646
sg4
tp647
a((dp648
g2
S'center'
p649
sg4
tp650
a((dp651
g2
S'street'
p652
sg4
tp653
a((dp654
g2
S'park'
p655
sg4
tp656
a((dp657
g2
S'university'
p658
sg4
tp659
a((dp660
g2
S'which'
p661
sg4
tp662
a((dp663
g2
S'detroit'
p664
sg4
tp665
a((dp666
g2
S'city'
p667
sg4
tp668
a((dp669
g2
S'michigan'
p670
sg4
tp671
a((dp672
g2
S'area'
p673
sg4
tp674
a((dp675
g2
S'\xe2'
p676
sg4
tp677
a((dp678
g2
S'population'
p679
sg4
tp680
a((dp681
g2
S'center'
p682
sg4
tp683
a((dp684
g2
S'states'
p685
sg4
tp686
a((dp687
g2
S'united'
p688
sg4
tp689
a((dp690
g2
S'new'
p691
sg4
tp692
a((dp693
g2
S'denver'
p694
sg4
tp695
a((dp696
g2
S'city'
p697
sg4
tp698
a((dp699
g2
S'colorado'
p700
sg4
tp701
a((dp702
g2
S'county'
p703
sg4
tp704
a((dp705
g2
S'\xe2'
p706
sg4
tp707
a((dp708
g2
S'park'
p709
sg4
tp710
a((dp711
g2
S'population'
p712
sg4
tp713
a((dp714
g2
S'also'
p715
sg4
tp716
a((dp717
g2
S'states'
p718
sg4
tp719
a((dp720
g2
S'center'
p721
sg4
tp722
a((dp723
g2
S'nashville'
p724
sg4
tp725
a((dp726
g2
S'city'
p727
sg4
tp728
a((dp729
g2
S'tennessee'
p730
sg4
tp731
a((dp732
g2
S'music'
p733
sg4
tp734
a((dp735
g2
S'county'
p736
sg4
tp737
a((dp738
g2
S'state'
p739
sg4
tp740
a((dp741
g2
S'\xe2'
p742
sg4
tp743
a((dp744
g2
S'davidson'
p745
sg4
tp746
a((dp747
g2
S'university'
p748
sg4
tp749
a((dp750
g2
S'area'
p751
sg4
tp752
a((dp753
g2
S'louisville'
p754
sg4
tp755
a((dp756
g2
S'kentucky'
p757
sg4
tp758
a((dp759
g2
S'city'
p760
sg4
tp761
a((dp762
g2
S'also'
p763
sg4
tp764
a((dp765
g2
S'\xe2'
p766
sg4
tp767
a((dp768
g2
S'area'
p769
sg4
tp770
a((dp771
g2
S'which'
p772
sg4
tp773
a((dp774
g2
S'county'
p775
sg4
tp776
a((dp777
g2
S'downtown'
p778
sg4
tp779
a((dp780
g2
S'metro'
p781
sg4
tp782
a((dp783
g2
S'portland'
p784
sg4
tp785
a((dp786
g2
S'city'
p787
sg4
tp788
a((dp789
g2
S'oregon'
p790
sg4
tp791
a((dp792
g2
S'\xe2'
p793
sg4
tp794
a((dp795
g2
S'park'
p796
sg4
tp797
a((dp798
g2
S'cities'
p799
sg4
tp800
a((dp801
g2
S'september'
p802
sg4
tp803
a((dp804
g2
S'most'
p805
sg4
tp806
a((dp807
g2
S'new'
p808
sg4
tp809
a((dp810
g2
S'2008'
p811
sg4
tp812
a((dp813
g2
S'city'
p814
sg4
tp815
a((dp816
g2
S'oklahoma'
p817
sg4
tp818
a((dp819
g2
S'center'
p820
sg4
tp821
a((dp822
g2
S'\xe2'
p823
sg4
tp824
a((dp825
g2
S'state'
p826
sg4
tp827
a((dp828
g2
S'august'
p829
sg4
tp830
a((dp831
g2
S'area'
p832
sg4
tp833
a((dp834
g2
S'com'
p835
sg4
tp836
a((dp837
g2
S'population'
p838
sg4
tp839
a((dp840
g2
S'university'
p841
sg4
tp842
a((dp843
g2
S'milwaukee'
p844
sg4
tp845
a((dp846
g2
S'city'
p847
sg4
tp848
a((dp849
g2
S'wisconsin'
p850
sg4
tp851
a((dp852
g2
S'\xe2'
p853
sg4
tp854
a((dp855
g2
S'county'
p856
sg4
tp857
a((dp858
g2
S'american'
p859
sg4
tp860
a((dp861
g2
S'cities'
p862
sg4
tp863
a((dp864
g2
S'area'
p865
sg4
tp866
a((dp867
g2
S'its'
p868
sg4
tp869
a((dp870
g2
S'german'
p871
sg4
tp872
a((dp873
g2
S'vegas'
p874
sg4
tp875
a((dp876
g2
S'las'
p877
sg4
tp878
a((dp879
g2
S'city'
p880
sg4
tp881
a((dp882
g2
S'nevada'
p883
sg4
tp884
a((dp885
g2
S'\xe2'
p886
sg4
tp887
a((dp888
g2
S'downtown'
p889
sg4
tp890
a((dp891
g2
S'area'
p892
sg4
tp893
a((dp894
g2
S'county'
p895
sg4
tp896
a((dp897
g2
S'valley'
p898
sg4
tp899
a((dp900
g2
S'\xc2'
p901
sg4
tp902
a((dp903
g2
S'chesapeake'
p904
sg4
tp905
a((dp906
g2
S'city'
p907
sg4
tp908
a((dp909
g2
S'virginia'
p910
sg4
tp911
a((dp912
g2
S'hampton'
p913
sg4
tp914
a((dp915
g2
S'roads'
p916
sg4
tp917
a((dp918
g2
S'norfolk'
p919
sg4
tp920
a((dp921
g2
S'bridge'
p922
sg4
tp923
a((dp924
g2
S'also'
p925
sg4
tp926
a((dp927
g2
S'cities'
p928
sg4
tp929
a((dp930
g2
S'county'
p931
sg4
tp932
a((dp933
g2
S'irving'
p934
sg4
tp935
a((dp936
g2
S'city'
p937
sg4
tp938
a((dp939
g2
S'\xe2'
p940
sg4
tp941
a((dp942
g2
S'texas'
p943
sg4
tp944
a((dp945
g2
S'dallas'
p946
sg4
tp947
a((dp948
g2
S'."'
p949
sg4
tp950
a((dp951
g2
S'school'
p952
sg4
tp953
a((dp954
g2
S'\x80\xa1'
p955
sg4
tp956
a((dp957
g2
S'states'
p958
sg4
tp959
a((dp960
g2
S'colinas'
p961
sg4
tp962
a((dp963
g2
S'scottsdale'
p964
sg4
tp965
a((dp966
g2
S'city'
p967
sg4
tp968
a((dp969
g2
S'arizona'
p970
sg4
tp971
a((dp972
g2
S'phoenix'
p973
sg4
tp974
a((dp975
g2
S'area'
p976
sg4
tp977
a((dp978
g2
S'which'
p979
sg4
tp980
a((dp981
g2
S'also'
p982
sg4
tp983
a((dp984
g2
S'most'
p985
sg4
tp986
a((dp987
g2
S'\xe2'
p988
sg4
tp989
a((dp990
g2
S'."'
p991
sg4
tp992
a((dp993
g2
S'temecula'
p994
sg4
tp995
a((dp996
g2
S'valley'
p997
sg4
tp998
a((dp999
g2
S'city'
p1000
sg4
tp1001
a((dp1002
g2
S'san'
p1003
sg4
tp1004
a((dp1005
g2
S'california'
p1006
sg4
tp1007
a((dp1008
g2
S'were'
p1009
sg4
tp1010
a((dp1011
g2
S'county'
p1012
sg4
tp1013
a((dp1014
g2
S'%)'
p1015
sg4
tp1016
a((dp1017
g2
S'riverside'
p1018
sg4
tp1019
a((dp1020
g2
S'\xe2'
p1021
sg4
tp1022
a((dp1023
g2
S'bay'
p1024
sg4
tp1025
a((dp1026
g2
S'green'
p1027
sg4
tp1028
a((dp1029
g2
S'\xe2'
p1030
sg4
tp1031
a((dp1032
g2
S'wisconsin'
p1033
sg4
tp1034
a((dp1035
g2
S'school'
p1036
sg4
tp1037
a((dp1038
g2
S'\x88\x92'
p1039
sg4
tp1040
a((dp1041
g2
S'city'
p1042
sg4
tp1043
a((dp1044
g2
S'player'
p1045
sg4
tp1046
a((dp1047
g2
S'nfl'
p1048
sg4
tp1049
a((dp1050
g2
S';&#'
p1051
sg4
tp1052
a((dp1053
g2
S'springfield'
p1054
sg4
tp1055
a((dp1056
g2
S'\xe2'
p1057
sg4
tp1058
a((dp1059
g2
S'city'
p1060
sg4
tp1061
a((dp1062
g2
S'massachusetts'
p1063
sg4
tp1064
a((dp1065
g2
S'new'
p1066
sg4
tp1067
a((dp1068
g2
S'park'
p1069
sg4
tp1070
a((dp1071
g2
S'which'
p1072
sg4
tp1073
a((dp1074
g2
S'features'
p1075
sg4
tp1076
a((dp1077
g2
S'its'
p1078
sg4
tp1079
a((dp1080
g2
S'center'
p1081
sg4
tp1082
a((dp1083
g2
S'palmdale'
p1084
sg4
tp1085
a((dp1086
g2
S'city'
p1087
sg4
tp1088
a((dp1089
g2
S'los'
p1090
sg4
tp1091
a((dp1092
g2
S'angeles'
p1093
sg4
tp1094
a((dp1095
g2
S'valley'
p1096
sg4
tp1097
a((dp1098
g2
S'antelope'
p1099
sg4
tp1100
a((dp1101
g2
S'california'
p1102
sg4
tp1103
a((dp1104
g2
S'county'
p1105
sg4
tp1106
a((dp1107
g2
S'east'
p1108
sg4
tp1109
a((dp1110
g2
S'center'
p1111
sg4
tp1112
a((dp1113
g2
S'salinas'
p1114
sg4
tp1115
a((dp1116
g2
S'california'
p1117
sg4
tp1118
a((dp1119
g2
S'city'
p1120
sg4
tp1121
a((dp1122
g2
S'san'
p1123
sg4
tp1124
a((dp1125
g2
S'valley'
p1126
sg4
tp1127
a((dp1128
g2
S'santa'
p1129
sg4
tp1130
a((dp1131
g2
S'%)'
p1132
sg4
tp1133
a((dp1134
g2
S'monterey'
p1135
sg4
tp1136
a((dp1137
g2
S'were'
p1138
sg4
tp1139
a((dp1140
g2
S'county'
p1141
sg4
tp1142
a((dp1143
g2
S'ontario'
p1144
sg4
tp1145
a((dp1146
g2
S'san'
p1147
sg4
tp1148
a((dp1149
g2
S'valley'
p1150
sg4
tp1151
a((dp1152
g2
S'city'
p1153
sg4
tp1154
a((dp1155
g2
S'were'
p1156
sg4
tp1157
a((dp1158
g2
S'california'
p1159
sg4
tp1160
a((dp1161
g2
S'los'
p1162
sg4
tp1163
a((dp1164
g2
S'angeles'
p1165
sg4
tp1166
a((dp1167
g2
S'%)'
p1168
sg4
tp1169
a((dp1170
g2
S'santa'
p1171
sg4
tp1172
a((dp1173
g2
S'tempe'
p1174
sg4
tp1175
a((dp1176
g2
S'arizona'
p1177
sg4
tp1178
a((dp1179
g2
S'city'
p1180
sg4
tp1181
a((dp1182
g2
S'phoenix'
p1183
sg4
tp1184
a((dp1185
g2
S'university'
p1186
sg4
tp1187
a((dp1188
g2
S'built'
p1189
sg4
tp1190
a((dp1191
g2
S'state'
p1192
sg4
tp1193
a((dp1194
g2
S'\xe2'
p1195
sg4
tp1196
a((dp1197
g2
S'area'
p1198
sg4
tp1199
a((dp1200
g2
S'valley'
p1201
sg4
tp1202
a((dp1203
g2
S'vancouver'
p1204
sg4
tp1205
a((dp1206
g2
S'city'
p1207
sg4
tp1208
a((dp1209
g2
S'washington'
p1210
sg4
tp1211
a((dp1212
g2
S'\xe2'
p1213
sg4
tp1214
a((dp1215
g2
S'school'
p1216
sg4
tp1217
a((dp1218
g2
S'18'
p1219
sg4
tp1220
a((dp1221
g2
S'were'
p1222
sg4
tp1223
a((dp1224
g2
S'columbia'
p1225
sg4
tp1226
a((dp1227
g2
S'portland'
p1228
sg4
tp1229
a((dp1230
g2
S'clark'
p1231
sg4
tp1232
a((dp1233
g2
S'springfield'
p1234
sg4
tp1235
a((dp1236
g2
S'city'
p1237
sg4
tp1238
a((dp1239
g2
S'missouri'
p1240
sg4
tp1241
a((dp1242
g2
S'\xe2'
p1243
sg4
tp1244
a((dp1245
g2
S'were'
p1246
sg4
tp1247
a((dp1248
g2
S'states'
p1249
sg4
tp1250
a((dp1251
g2
S'national'
p1252
sg4
tp1253
a((dp1254
g2
S'united'
p1255
sg4
tp1256
a((dp1257
g2
S'\x88\x92'
p1258
sg4
tp1259
a((dp1260
g2
S'state'
p1261
sg4
tp1262
a((dp1263
g2
S'cape'
p1264
sg4
tp1265
a((dp1266
g2
S'coral'
p1267
sg4
tp1268
a((dp1269
g2
S'city'
p1270
sg4
tp1271
a((dp1272
g2
S'florida'
p1273
sg4
tp1274
a((dp1275
g2
S'fort'
p1276
sg4
tp1277
a((dp1278
g2
S'km'
p1279
sg4
tp1280
a((dp1281
g2
S'\xe2'
p1282
sg4
tp1283
a((dp1284
g2
S'population'
p1285
sg4
tp1286
a((dp1287
g2
S'18'
p1288
sg4
tp1289
a((dp1290
g2
S'area'
p1291
sg4
tp1292
a((dp1293
g2
S'pines'
p1294
sg4
tp1295
a((dp1296
g2
S'pembroke'
p1297
sg4
tp1298
a((dp1299
g2
S'city'
p1300
sg4
tp1301
a((dp1302
g2
S'florida'
p1303
sg4
tp1304
a((dp1305
g2
S'school'
p1306
sg4
tp1307
a((dp1308
g2
S'beach'
p1309
sg4
tp1310
a((dp1311
g2
S'broward'
p1312
sg4
tp1313
a((dp1314
g2
S'miami'
p1315
sg4
tp1316
a((dp1317
g2
S'population'
p1318
sg4
tp1319
a((dp1320
g2
S'county'
p1321
sg4
tp1322
a((dp1323
g2
S'sioux'
p1324
sg4
tp1325
a((dp1326
g2
S'falls'
p1327
sg4
tp1328
a((dp1329
g2
S'\xe2'
p1330
sg4
tp1331
a((dp1332
g2
S'city'
p1333
sg4
tp1334
a((dp1335
g2
S'dakota'
p1336
sg4
tp1337
a((dp1338
g2
S'south'
p1339
sg4
tp1340
a((dp1341
g2
S'\x88\x92'
p1342
sg4
tp1343
a((dp1344
g2
S'24'
p1345
sg4
tp1346
a((dp1347
g2
S'school'
p1348
sg4
tp1349
a((dp1350
g2
S'area'
p1351
sg4
tp1352
a((dp1353
g2
S'peoria'
p1354
sg4
tp1355
a((dp1356
g2
S'city'
p1357
sg4
tp1358
a((dp1359
g2
S'arizona'
p1360
sg4
tp1361
a((dp1362
g2
S'\xe2'
p1363
sg4
tp1364
a((dp1365
g2
S'phoenix'
p1366
sg4
tp1367
a((dp1368
g2
S'school'
p1369
sg4
tp1370
a((dp1371
g2
S'km'
p1372
sg4
tp1373
a((dp1374
g2
S'population'
p1375
sg4
tp1376
a((dp1377
g2
S'valley'
p1378
sg4
tp1379
a((dp1380
g2
S'were'
p1381
sg4
tp1382
a((dp1383
g2
S'salem'
p1384
sg4
tp1385
a((dp1386
g2
S'oregon'
p1387
sg4
tp1388
a((dp1389
g2
S'city'
p1390
sg4
tp1391
a((dp1392
g2
S'state'
p1393
sg4
tp1394
a((dp1395
g2
S'\xe2'
p1396
sg4
tp1397
a((dp1398
g2
S'park'
p1399
sg4
tp1400
a((dp1401
g2
S'were'
p1402
sg4
tp1403
a((dp1404
g2
S'area'
p1405
sg4
tp1406
a((dp1407
g2
S'willamette'
p1408
sg4
tp1409
a((dp1410
g2
S'18'
p1411
sg4
tp1412
a((dp1413
g2
S'oaks'
p1414
sg4
tp1415
a((dp1416
g2
S'thousand'
p1417
sg4
tp1418
a((dp1419
g2
S'valley'
p1420
sg4
tp1421
a((dp1422
g2
S'city'
p1423
sg4
tp1424
a((dp1425
g2
S'california'
p1426
sg4
tp1427
a((dp1428
g2
S'area'
p1429
sg4
tp1430
a((dp1431
g2
S'conejo'
p1432
sg4
tp1433
a((dp1434
g2
S'los'
p1435
sg4
tp1436
a((dp1437
g2
S'san'
p1438
sg4
tp1439
a((dp1440
g2
S'angeles'
p1441
sg4
tp1442
a((dp1443
g2
S'sunnyvale'
p1444
sg4
tp1445
a((dp1446
g2
S'san'
p1447
sg4
tp1448
a((dp1449
g2
S'city'
p1450
sg4
tp1451
a((dp1452
g2
S'bay'
p1453
sg4
tp1454
a((dp1455
g2
S'valley'
p1456
sg4
tp1457
a((dp1458
g2
S'california'
p1459
sg4
tp1460
a((dp1461
g2
S'santa'
p1462
sg4
tp1463
a((dp1464
g2
S'school'
p1465
sg4
tp1466
a((dp1467
g2
S'park'
p1468
sg4
tp1469
a((dp1470
g2
S'were'
p1471
sg4
tp1472
a((dp1473
g2
S'miramar'
p1474
sg4
tp1475
a((dp1476
g2
S'florida'
p1477
sg4
tp1478
a((dp1479
g2
S'beach'
p1480
sg4
tp1481
a((dp1482
g2
S'city'
p1483
sg4
tp1484
a((dp1485
g2
S'school'
p1486
sg4
tp1487
a((dp1488
g2
S'miami'
p1489
sg4
tp1490
a((dp1491
g2
S'elementary'
p1492
sg4
tp1493
a((dp1494
g2
S'population'
p1495
sg4
tp1496
a((dp1497
g2
S'25'
p1498
sg4
tp1499
a((dp1500
g2
S'lauderdale'
p1501
sg4
tp1502
a((dp1503
g2
S'concord'
p1504
sg4
tp1505
a((dp1506
g2
S'city'
p1507
sg4
tp1508
a((dp1509
g2
S'san'
p1510
sg4
tp1511
a((dp1512
g2
S'bay'
p1513
sg4
tp1514
a((dp1515
g2
S'california'
p1516
sg4
tp1517
a((dp1518
g2
S'area'
p1519
sg4
tp1520
a((dp1521
g2
S'were'
p1522
sg4
tp1523
a((dp1524
g2
S'%)'
p1525
sg4
tp1526
a((dp1527
g2
S'station'
p1528
sg4
tp1529
a((dp1530
g2
S'\xc2'
p1531
sg4
tp1532
a((dp1533
g2
S'colorado'
p1534
sg4
tp1535
a((dp1536
g2
S'thornton'
p1537
sg4
tp1538
a((dp1539
g2
S'\xe2'
p1540
sg4
tp1541
a((dp1542
g2
S'city'
p1543
sg4
tp1544
a((dp1545
g2
S'\x80\xa1'
p1546
sg4
tp1547
a((dp1548
g2
S'county'
p1549
sg4
tp1550
a((dp1551
g2
S'denver'
p1552
sg4
tp1553
a((dp1554
g2
S'adams'
p1555
sg4
tp1556
a((dp1557
g2
S'states'
p1558
sg4
tp1559
a((dp1560
g2
S'united'
p1561
sg4
tp1562
a((dp1563
g2
S'barcelona'
p1564
sg4
tp1565
a((dp1566
g2
S'de'
p1567
sg4
tp1568
a((dp1569
g2
S'city'
p1570
sg4
tp1571
a((dp1572
g2
S'sant'
p1573
sg4
tp1574
a((dp1575
g2
S'la'
p1576
sg4
tp1577
a((dp1578
g2
S'\xad'
p1579
sg4
tp1580
a((dp1581
g2
S'del'
p1582
sg4
tp1583
a((dp1584
g2
S'c'
p1585
sg4
tp1586
a((dp1587
g2
S'\xe2'
p1588
sg4
tp1589
a((dp1590
g2
S'\xa8'
p1591
sg4
tp1592
a((dp1593
g2
S'berlin'
p1594
sg4
tp1595
a((dp1596
g2
S'city'
p1597
sg4
tp1598
a((dp1599
g2
S'german'
p1600
sg4
tp1601
a((dp1602
g2
S'august'
p1603
sg4
tp1604
a((dp1605
g2
S'\xe2'
p1606
sg4
tp1607
a((dp1608
g2
S'2008'
p1609
sg4
tp1610
a((dp1611
g2
S',&#'
p1612
sg4
tp1613
a((dp1614
g2
S'germany'
p1615
sg4
tp1616
a((dp1617
g2
S'\xb6'
p1618
sg4
tp1619
a((dp1620
g2
S'\xa4'
p1621
sg4
tp1622
a((dp1623
g2
S'hamburg'
p1624
sg4
tp1625
a((dp1626
g2
S'german'
p1627
sg4
tp1628
a((dp1629
g2
S'2008'
p1630
sg4
tp1631
a((dp1632
g2
S'city'
p1633
sg4
tp1634
a((dp1635
g2
S'\xe2'
p1636
sg4
tp1637
a((dp1638
g2
S'germany'
p1639
sg4
tp1640
a((dp1641
g2
S'august'
p1642
sg4
tp1643
a((dp1644
g2
S'since'
p1645
sg4
tp1646
a((dp1647
g2
S'states'
p1648
sg4
tp1649
a((dp1650
g2
S'\xb6'
p1651
sg4
tp1652
a((dp1653
g2
S'munich'
p1654
sg4
tp1655
a((dp1656
g2
S'city'
p1657
sg4
tp1658
a((dp1659
g2
S'\xe2'
p1660
sg4
tp1661
a((dp1662
g2
S'bavaria'
p1663
sg4
tp1664
a((dp1665
g2
S'\xa4'
p1666
sg4
tp1667
a((dp1668
g2
S'german'
p1669
sg4
tp1670
a((dp1671
g2
S'born'
p1672
sg4
tp1673
a((dp1674
g2
S'which'
p1675
sg4
tp1676
a((dp1677
g2
S'germany'
p1678
sg4
tp1679
a((dp1680
g2
S'\xb6'
p1681
sg4
tp1682
a((dp1683
g2
S'cologne'
p1684
sg4
tp1685
a((dp1686
g2
S'city'
p1687
sg4
tp1688
a((dp1689
g2
S'\xb6'
p1690
sg4
tp1691
a((dp1692
g2
S'k\xc3'
p1693
sg4
tp1694
a((dp1695
g2
S'ln'
p1696
sg4
tp1697
a((dp1698
g2
S'german'
p1699
sg4
tp1700
a((dp1701
g2
S'germany'
p1702
sg4
tp1703
a((dp1704
g2
S'de'
p1705
sg4
tp1706
a((dp1707
g2
S'\xe2'
p1708
sg4
tp1709
a((dp1710
g2
S'rhine'
p1711
sg4
tp1712
a((dp1713
g2
S'stuttgart'
p1714
sg4
tp1715
a((dp1716
g2
S'city'
p1717
sg4
tp1718
a((dp1719
g2
S'\xe2'
p1720
sg4
tp1721
a((dp1722
g2
S'german'
p1723
sg4
tp1724
a((dp1725
g2
S';%'
p1726
sg4
tp1727
a((dp1728
g2
S'germany'
p1729
sg4
tp1730
a((dp1731
g2
S'w\xc3\xbcrttemberg'
p1732
sg4
tp1733
a((dp1734
g2
S'its'
p1735
sg4
tp1736
a((dp1737
g2
S'state'
p1738
sg4
tp1739
a((dp1740
g2
S'also'
p1741
sg4
tp1742
a((dp1743
g2
S'essen'
p1744
sg4
tp1745
a((dp1746
g2
S'city'
p1747
sg4
tp1748
a((dp1749
g2
S'\xe2'
p1750
sg4
tp1751
a((dp1752
g2
S'ruhr'
p1753
sg4
tp1754
a((dp1755
g2
S'germany'
p1756
sg4
tp1757
a((dp1758
g2
S'which'
p1759
sg4
tp1760
a((dp1761
g2
S'area'
p1762
sg4
tp1763
a((dp1764
g2
S'krupp'
p1765
sg4
tp1766
a((dp1767
g2
S'one'
p1768
sg4
tp1769
a((dp1770
g2
S'abbey'
p1771
sg4
tp1772
a((dp1773
g2
S'bremen'
p1774
sg4
tp1775
a((dp1776
g2
S'city'
p1777
sg4
tp1778
a((dp1779
g2
S'\xe2'
p1780
sg4
tp1781
a((dp1782
g2
S'\x80\x94'
p1783
sg4
tp1784
a((dp1785
g2
S'its'
p1786
sg4
tp1787
a((dp1788
g2
S'prince'
p1789
sg4
tp1790
a((dp1791
g2
S'german'
p1792
sg4
tp1793
a((dp1794
g2
S'which'
p1795
sg4
tp1796
a((dp1797
g2
S'germany'
p1798
sg4
tp1799
a((dp1800
g2
S'had'
p1801
sg4
tp1802
a((dp1803
g2
S'dresden'
p1804
sg4
tp1805
a((dp1806
g2
S'city'
p1807
sg4
tp1808
a((dp1809
g2
S'german'
p1810
sg4
tp1811
a((dp1812
g2
S'germany'
p1813
sg4
tp1814
a((dp1815
g2
S'\xe2'
p1816
sg4
tp1817
a((dp1818
g2
S'its'
p1819
sg4
tp1820
a((dp1821
g2
S'state'
p1822
sg4
tp1823
a((dp1824
g2
S'saxony'
p1825
sg4
tp1826
a((dp1827
g2
S'which'
p1828
sg4
tp1829
a((dp1830
g2
S'cities'
p1831
sg4
tp1832
a((dp1833
g2
S'hanover'
p1834
sg4
tp1835
a((dp1836
g2
S'hannover'
p1837
sg4
tp1838
a((dp1839
g2
S'city'
p1840
sg4
tp1841
a((dp1842
g2
S'germany'
p1843
sg4
tp1844
a((dp1845
g2
S'german'
p1846
sg4
tp1847
a((dp1848
g2
S'also'
p1849
sg4
tp1850
a((dp1851
g2
S'international'
p1852
sg4
tp1853
a((dp1854
g2
S'which'
p1855
sg4
tp1856
a((dp1857
g2
S'museum'
p1858
sg4
tp1859
a((dp1860
g2
S'one'
p1861
sg4
tp1862
a((dp1863
g2
S'nuremberg'
p1864
sg4
tp1865
a((dp1866
g2
S'city'
p1867
sg4
tp1868
a((dp1869
g2
S'german'
p1870
sg4
tp1871
a((dp1872
g2
S'its'
p1873
sg4
tp1874
a((dp1875
g2
S'n\xc3\xbcrnberg'
p1876
sg4
tp1877
a((dp1878
g2
S'also'
p1879
sg4
tp1880
a((dp1881
g2
S'were'
p1882
sg4
tp1883
a((dp1884
g2
S'\xe2'
p1885
sg4
tp1886
a((dp1887
g2
S'since'
p1888
sg4
tp1889
a((dp1890
g2
S'war'
p1891
sg4
tp1892
a((dp1893
g2
S'bochum'
p1894
sg4
tp1895
a((dp1896
g2
S'german'
p1897
sg4
tp1898
a((dp1899
g2
S'war'
p1900
sg4
tp1901
a((dp1902
g2
S'city'
p1903
sg4
tp1904
a((dp1905
g2
S'ruhr'
p1906
sg4
tp1907
a((dp1908
g2
S'\xe2'
p1909
sg4
tp1910
a((dp1911
g2
S'accessed'
p1912
sg4
tp1913
a((dp1914
g2
S'march'
p1915
sg4
tp1916
a((dp1917
g2
S'\xb6'
p1918
sg4
tp1919
a((dp1920
g2
S'were'
p1921
sg4
tp1922
a((dp1923
g2
S'aurangabad'
p1924
sg4
tp1925
a((dp1926
g2
S'city'
p1927
sg4
tp1928
a((dp1929
g2
S'\xe2'
p1930
sg4
tp1931
a((dp1932
g2
S'maharashtra'
p1933
sg4
tp1934
a((dp1935
g2
S'india'
p1936
sg4
tp1937
a((dp1938
g2
S'also'
p1939
sg4
tp1940
a((dp1941
g2
S'hyderabad'
p1942
sg4
tp1943
a((dp1944
g2
S'state'
p1945
sg4
tp1946
a((dp1947
g2
S'its'
p1948
sg4
tp1949
a((dp1950
g2
S'\xc2'
p1951
sg4
tp1952
a((dp1953
g2
S'allahabad'
p1954
sg4
tp1955
a((dp1956
g2
S'india'
p1957
sg4
tp1958
a((dp1959
g2
S'city'
p1960
sg4
tp1961
a((dp1962
g2
S'august'
p1963
sg4
tp1964
a((dp1965
g2
S'september'
p1966
sg4
tp1967
a((dp1968
g2
S'25'
p1969
sg4
tp1970
a((dp1971
g2
S'81'
p1972
sg4
tp1973
a((dp1974
g2
S'indian'
p1975
sg4
tp1976
a((dp1977
g2
S'978'
p1978
sg4
tp1979
a((dp1980
g2
S'pradesh'
p1981
sg4
tp1982
a((dp1983
g2
S'amritsar'
p1984
sg4
tp1985
a((dp1986
g2
S'india'
p1987
sg4
tp1988
a((dp1989
g2
S'city'
p1990
sg4
tp1991
a((dp1992
g2
S'indian'
p1993
sg4
tp1994
a((dp1995
g2
S'school'
p1996
sg4
tp1997
a((dp1998
g2
S'\xc2'
p1999
sg4
tp2000
a((dp2001
g2
S'college'
p2002
sg4
tp2003
a((dp2004
g2
S'sikh'
p2005
sg4
tp2006
a((dp2007
g2
S'singh'
p2008
sg4
tp2009
a((dp2010
g2
S'cities'
p2011
sg4
tp2012
a((dp2013
g2
S'ajmer'
p2014
sg4
tp2015
a((dp2016
g2
S'\x81'
p2017
sg4
tp2018
a((dp2019
g2
S'city'
p2020
sg4
tp2021
a((dp2022
g2
S'india'
p2023
sg4
tp2024
a((dp2025
g2
S'pushkar'
p2026
sg4
tp2027
a((dp2028
g2
S'lake'
p2029
sg4
tp2030
a((dp2031
g2
S'cities'
p2032
sg4
tp2033
a((dp2034
g2
S'district'
p2035
sg4
tp2036
a((dp2037
g2
S'km'
p2038
sg4
tp2039
a((dp2040
g2
S'\xa4'
p2041
sg4
tp2042
a((dp2043
g2
S'arwal'
p2044
sg4
tp2045
a((dp2046
g2
S'district'
p2047
sg4
tp2048
a((dp2049
g2
S'25'
p2050
sg4
tp2051
a((dp2052
g2
S'\xbb\xbf'
p2053
sg4
tp2054
a((dp2055
g2
S'\xef'
p2056
sg4
tp2057
a((dp2058
g2
S'bihar'
p2059
sg4
tp2060
a((dp2061
g2
S'25\xc2'
p2062
sg4
tp2063
a((dp2064
g2
S'84'
p2065
sg4
tp2066
a((dp2067
g2
S'page'
p2068
sg4
tp2069
a((dp2070
g2
S'india'
p2071
sg4
tp2072
a((dp2073
g2
S'amravati'
p2074
sg4
tp2075
a((dp2076
g2
S'city'
p2077
sg4
tp2078
a((dp2079
g2
S'\xe2'
p2080
sg4
tp2081
a((dp2082
g2
S'shri'
p2083
sg4
tp2084
a((dp2085
g2
S'first'
p2086
sg4
tp2087
a((dp2088
g2
S'school'
p2089
sg4
tp2090
a((dp2091
g2
S'railway'
p2092
sg4
tp2093
a((dp2094
g2
S'college'
p2095
sg4
tp2096
a((dp2097
g2
S'district'
p2098
sg4
tp2099
a((dp2100
g2
S'maharashtra'
p2101
sg4
tp2102
a((dp2103
g2
S'asansol'
p2104
sg4
tp2105
a((dp2106
g2
S'ii'
p2107
sg4
tp2108
a((dp2109
g2
S'bardhaman'
p2110
sg4
tp2111
a((dp2112
g2
S'durgapur'
p2113
sg4
tp2114
a((dp2115
g2
S'\xe2'
p2116
sg4
tp2117
a((dp2118
g2
S'bengal'
p2119
sg4
tp2120
a((dp2121
g2
S'india'
p2122
sg4
tp2123
a((dp2124
g2
S'railway'
p2125
sg4
tp2126
a((dp2127
g2
S'steel'
p2128
sg4
tp2129
a((dp2130
g2
S'west'
p2131
sg4
tp2132
a((dp2133
g2
S'agartala'
p2134
sg4
tp2135
a((dp2136
g2
S'tripura'
p2137
sg4
tp2138
a((dp2139
g2
S'city'
p2140
sg4
tp2141
a((dp2142
g2
S'state'
p2143
sg4
tp2144
a((dp2145
g2
S'india'
p2146
sg4
tp2147
a((dp2148
g2
S'km'
p2149
sg4
tp2150
a((dp2151
g2
S'college'
p2152
sg4
tp2153
a((dp2154
g2
S'\xe2'
p2155
sg4
tp2156
a((dp2157
g2
S'bengali'
p2158
sg4
tp2159
a((dp2160
g2
S'also'
p2161
sg4
tp2162
a((dp2163
g2
S'agra'
p2164
sg4
tp2165
a((dp2166
g2
S'\x81'
p2167
sg4
tp2168
a((dp2169
g2
S'india'
p2170
sg4
tp2171
a((dp2172
g2
S'university'
p2173
sg4
tp2174
a((dp2175
g2
S'\xab'
p2176
sg4
tp2177
a((dp2178
g2
S'delhi'
p2179
sg4
tp2180
a((dp2181
g2
S'fort'
p2182
sg4
tp2183
a((dp2184
g2
S'mahal'
p2185
sg4
tp2186
a((dp2187
g2
S'college'
p2188
sg4
tp2189
a((dp2190
g2
S'city'
p2191
sg4
tp2192
a((dp2193
g2
S'ahmedabad'
p2194
sg4
tp2195
a((dp2196
g2
S'india'
p2197
sg4
tp2198
a((dp2199
g2
S'city'
p2200
sg4
tp2201
a((dp2202
g2
S'gujarat'
p2203
sg4
tp2204
a((dp2205
g2
S'2008'
p2206
sg4
tp2207
a((dp2208
g2
S'\xe2'
p2209
sg4
tp2210
a((dp2211
g2
S'indian'
p2212
sg4
tp2213
a((dp2214
g2
S'july'
p2215
sg4
tp2216
a((dp2217
g2
S'june'
p2218
sg4
tp2219
a((dp2220
g2
S'sabarmati'
p2221
sg4
tp2222
a((dp2223
g2
S'aligarh'
p2224
sg4
tp2225
a((dp2226
g2
S'city'
p2227
sg4
tp2228
a((dp2229
g2
S'nagar'
p2230
sg4
tp2231
a((dp2232
g2
S'muslim'
p2233
sg4
tp2234
a((dp2235
g2
S'district'
p2236
sg4
tp2237
a((dp2238
g2
S'kol'
p2239
sg4
tp2240
a((dp2241
g2
S'delhi'
p2242
sg4
tp2243
a((dp2244
g2
S'pradesh'
p2245
sg4
tp2246
a((dp2247
g2
S'university'
p2248
sg4
tp2249
a((dp2250
g2
S'\xa4'
p2251
sg4
tp2252
a((dp2253
g2
S'sydney'
p2254
sg4
tp2255
a((dp2256
g2
S'city'
p2257
sg4
tp2258
a((dp2259
g2
S'australia'
p2260
sg4
tp2261
a((dp2262
g2
S'australian'
p2263
sg4
tp2264
a((dp2265
g2
S'south'
p2266
sg4
tp2267
a((dp2268
g2
S'new'
p2269
sg4
tp2270
a((dp2271
g2
S'government'
p2272
sg4
tp2273
a((dp2274
g2
S'wales'
p2275
sg4
tp2276
a((dp2277
g2
S'\xc2'
p2278
sg4
tp2279
a((dp2280
g2
S'\xe2'
p2281
sg4
tp2282
a((dp2283
g2
S'albury'
p2284
sg4
tp2285
a((dp2286
g2
S'south'
p2287
sg4
tp2288
a((dp2289
g2
S'city'
p2290
sg4
tp2291
a((dp2292
g2
S'murray'
p2293
sg4
tp2294
a((dp2295
g2
S'hume'
p2296
sg4
tp2297
a((dp2298
g2
S'wodonga'
p2299
sg4
tp2300
a((dp2301
g2
S'new'
p2302
sg4
tp2303
a((dp2304
g2
S'australia'
p2305
sg4
tp2306
a((dp2307
g2
S'river'
p2308
sg4
tp2309
a((dp2310
g2
S'wales'
p2311
sg4
tp2312
a((dp2313
g2
S'armidale'
p2314
sg4
tp2315
a((dp2316
g2
S'new'
p2317
sg4
tp2318
a((dp2319
g2
S'city'
p2320
sg4
tp2321
a((dp2322
g2
S'england'
p2323
sg4
tp2324
a((dp2325
g2
S'south'
p2326
sg4
tp2327
a((dp2328
g2
S'\xc2'
p2329
sg4
tp2330
a((dp2331
g2
S'c'
p2332
sg4
tp2333
a((dp2334
g2
S'school'
p2335
sg4
tp2336
a((dp2337
g2
S'university'
p2338
sg4
tp2339
a((dp2340
g2
S'australia'
p2341
sg4
tp2342
a((dp2343
g2
S'bathurst'
p2344
sg4
tp2345
a((dp2346
g2
S'\xe2'
p2347
sg4
tp2348
a((dp2349
g2
S'march'
p2350
sg4
tp2351
a((dp2352
g2
S'regional'
p2353
sg4
tp2354
a((dp2355
g2
S'city'
p2356
sg4
tp2357
a((dp2358
g2
S'nsw'
p2359
sg4
tp2360
a((dp2361
g2
S'new'
p2362
sg4
tp2363
a((dp2364
g2
S'australian'
p2365
sg4
tp2366
a((dp2367
g2
S'centre'
p2368
sg4
tp2369
a((dp2370
g2
S'council'
p2371
sg4
tp2372
a((dp2373
g2
S'mountains'
p2374
sg4
tp2375
a((dp2376
g2
S'blue'
p2377
sg4
tp2378
a((dp2379
g2
S'city'
p2380
sg4
tp2381
a((dp2382
g2
S'council'
p2383
sg4
tp2384
a((dp2385
g2
S'south'
p2386
sg4
tp2387
a((dp2388
g2
S'new'
p2389
sg4
tp2390
a((dp2391
g2
S'wales'
p2392
sg4
tp2393
a((dp2394
g2
S'government'
p2395
sg4
tp2396
a((dp2397
g2
S'local'
p2398
sg4
tp2399
a((dp2400
g2
S'youth'
p2401
sg4
tp2402
a((dp2403
g2
S'broken'
p2404
sg4
tp2405
a((dp2406
g2
S'hill'
p2407
sg4
tp2408
a((dp2409
g2
S'\xe2'
p2410
sg4
tp2411
a((dp2412
g2
S'south'
p2413
sg4
tp2414
a((dp2415
g2
S'australia'
p2416
sg4
tp2417
a((dp2418
g2
S'new'
p2419
sg4
tp2420
a((dp2421
g2
S'mining'
p2422
sg4
tp2423
a((dp2424
g2
S'wales'
p2425
sg4
tp2426
a((dp2427
g2
S'sydney'
p2428
sg4
tp2429
a((dp2430
g2
S'city'
p2431
sg4
tp2432
a((dp2433
g2
S'campbelltown'
p2434
sg4
tp2435
a((dp2436
g2
S'south'
p2437
sg4
tp2438
a((dp2439
g2
S'\xe2'
p2440
sg4
tp2441
a((dp2442
g2
S'sydney'
p2443
sg4
tp2444
a((dp2445
g2
S'macarthur'
p2446
sg4
tp2447
a((dp2448
g2
S'street'
p2449
sg4
tp2450
a((dp2451
g2
S'new'
p2452
sg4
tp2453
a((dp2454
g2
S'wales'
p2455
sg4
tp2456
a((dp2457
g2
S'2008'
p2458
sg4
tp2459
a((dp2460
g2
S'area'
p2461
sg4
tp2462
a((dp2463
g2
S'cessnock'
p2464
sg4
tp2465
a((dp2466
g2
S'hunter'
p2467
sg4
tp2468
a((dp2469
g2
S'new'
p2470
sg4
tp2471
a((dp2472
g2
S'south'
p2473
sg4
tp2474
a((dp2475
g2
S'city'
p2476
sg4
tp2477
a((dp2478
g2
S'newcastle'
p2479
sg4
tp2480
a((dp2481
g2
S'kurri'
p2482
sg4
tp2483
a((dp2484
g2
S'\xe2'
p2485
sg4
tp2486
a((dp2487
g2
S'wales'
p2488
sg4
tp2489
a((dp2490
g2
S'\xc2'
p2491
sg4
tp2492
a((dp2493
g2
S'dubbo'
p2494
sg4
tp2495
a((dp2496
g2
S'\xe2'
p2497
sg4
tp2498
a((dp2499
g2
S'city'
p2500
sg4
tp2501
a((dp2502
g2
S'south'
p2503
sg4
tp2504
a((dp2505
g2
S'australian'
p2506
sg4
tp2507
a((dp2508
g2
S'also'
p2509
sg4
tp2510
a((dp2511
g2
S'local'
p2512
sg4
tp2513
a((dp2514
g2
S'new'
p2515
sg4
tp2516
a((dp2517
g2
S'station'
p2518
sg4
tp2519
a((dp2520
g2
S'area'
p2521
sg4
tp2522
a((dp2523
g2
S'goulburn'
p2524
sg4
tp2525
a((dp2526
g2
S'south'
p2527
sg4
tp2528
a((dp2529
g2
S'new'
p2530
sg4
tp2531
a((dp2532
g2
S'wales'
p2533
sg4
tp2534
a((dp2535
g2
S'\xc2'
p2536
sg4
tp2537
a((dp2538
g2
S'australia'
p2539
sg4
tp2540
a((dp2541
g2
S'local'
p2542
sg4
tp2543
a((dp2544
g2
S'australian'
p2545
sg4
tp2546
a((dp2547
g2
S'police'
p2548
sg4
tp2549
a((dp2550
g2
S'station'
p2551
sg4
tp2552
a((dp2553
g2
S'grafton'
p2554
sg4
tp2555
a((dp2556
g2
S'school'
p2557
sg4
tp2558
a((dp2559
g2
S'south'
p2560
sg4
tp2561
a((dp2562
g2
S'born'
p2563
sg4
tp2564
a((dp2565
g2
S'clarence'
p2566
sg4
tp2567
a((dp2568
g2
S'fm'
p2569
sg4
tp2570
a((dp2571
g2
S'\xe2'
p2572
sg4
tp2573
a((dp2574
g2
S'\xc2'
p2575
sg4
tp2576
a((dp2577
g2
S'australia'
p2578
sg4
tp2579
a((dp2580
g2
S'australian'
p2581
sg4
tp2582
a((dp2583
g2
S'lithgow'
p2584
sg4
tp2585
a((dp2586
g2
S'south'
p2587
sg4
tp2588
a((dp2589
g2
S'new'
p2590
sg4
tp2591
a((dp2592
g2
S'wales'
p2593
sg4
tp2594
a((dp2595
g2
S'\xe2'
p2596
sg4
tp2597
a((dp2598
g2
S'\xc2'
p2599
sg4
tp2600
a((dp2601
g2
S'18'
p2602
sg4
tp2603
a((dp2604
g2
S'australia'
p2605
sg4
tp2606
a((dp2607
g2
S'33'
p2608
sg4
tp2609
a((dp2610
g2
S'which'
p2611
sg4
tp2612
a((dp2613
g2
S'liverpool'
p2614
sg4
tp2615
a((dp2616
g2
S'sydney'
p2617
sg4
tp2618
a((dp2619
g2
S'28'
p2620
sg4
tp2621
a((dp2622
g2
S'south'
p2623
sg4
tp2624
a((dp2625
g2
S'city'
p2626
sg4
tp2627
a((dp2628
g2
S'centre'
p2629
sg4
tp2630
a((dp2631
g2
S'australian'
p2632
sg4
tp2633
a((dp2634
g2
S'\xe2'
p2635
sg4
tp2636
a((dp2637
g2
S'electoral'
p2638
sg4
tp2639
a((dp2640
g2
S'new'
p2641
sg4
tp2642
a((dp2643
g2
S'newcastle'
p2644
sg4
tp2645
a((dp2646
g2
S'hunter'
p2647
sg4
tp2648
a((dp2649
g2
S'new'
p2650
sg4
tp2651
a((dp2652
g2
S'city'
p2653
sg4
tp2654
a((dp2655
g2
S'south'
p2656
sg4
tp2657
a((dp2658
g2
S'australian'
p2659
sg4
tp2660
a((dp2661
g2
S'coal'
p2662
sg4
tp2663
a((dp2664
g2
S'2008'
p2665
sg4
tp2666
a((dp2667
g2
S'australia'
p2668
sg4
tp2669
a((dp2670
g2
S'wales'
p2671
sg4
tp2672
a((dp2673
g2
S'orange'
p2674
sg4
tp2675
a((dp2676
g2
S'australian'
p2677
sg4
tp2678
a((dp2679
g2
S'school'
p2680
sg4
tp2681
a((dp2682
g2
S'south'
p2683
sg4
tp2684
a((dp2685
g2
S'australia'
p2686
sg4
tp2687
a((dp2688
g2
S'city'
p2689
sg4
tp2690
a((dp2691
g2
S'also'
p2692
sg4
tp2693
a((dp2694
g2
S'new'
p2695
sg4
tp2696
a((dp2697
g2
S'national'
p2698
sg4
tp2699
a((dp2700
g2
S'public'
p2701
sg4
tp2702
a((dp2703
g2
S'parramatta'
p2704
sg4
tp2705
a((dp2706
g2
S'sydney'
p2707
sg4
tp2708
a((dp2709
g2
S'new'
p2710
sg4
tp2711
a((dp2712
g2
S'school'
p2713
sg4
tp2714
a((dp2715
g2
S'south'
p2716
sg4
tp2717
a((dp2718
g2
S'street'
p2719
sg4
tp2720
a((dp2721
g2
S'wales'
p2722
sg4
tp2723
a((dp2724
g2
S'river'
p2725
sg4
tp2726
a((dp2727
g2
S'2008'
p2728
sg4
tp2729
a((dp2730
g2
S'australia'
p2731
sg4
tp2732
a((dp2733
g2
S'penrith'
p2734
sg4
tp2735
a((dp2736
g2
S'sydney'
p2737
sg4
tp2738
a((dp2739
g2
S'nepean'
p2740
sg4
tp2741
a((dp2742
g2
S'city'
p2743
sg4
tp2744
a((dp2745
g2
S'western'
p2746
sg4
tp2747
a((dp2748
g2
S'south'
p2749
sg4
tp2750
a((dp2751
g2
S'which'
p2752
sg4
tp2753
a((dp2754
g2
S'18'
p2755
sg4
tp2756
a((dp2757
g2
S'area'
p2758
sg4
tp2759
a((dp2760
g2
S'\xc2'
p2761
sg4
tp2762
a((dp2763
g2
S'queanbeyan'
p2764
sg4
tp2765
a((dp2766
g2
S'south'
p2767
sg4
tp2768
a((dp2769
g2
S'canberra'
p2770
sg4
tp2771
a((dp2772
g2
S'australian'
p2773
sg4
tp2774
a((dp2775
g2
S'new'
p2776
sg4
tp2777
a((dp2778
g2
S'city'
p2779
sg4
tp2780
a((dp2781
g2
S'wales'
p2782
sg4
tp2783
a((dp2784
g2
S'centre'
p2785
sg4
tp2786
a((dp2787
g2
S'local'
p2788
sg4
tp2789
a((dp2790
g2
S'player'
p2791
sg4
tp2792
a((dp2793
g2
S'tamworth'
p2794
sg4
tp2795
a((dp2796
g2
S'\xe2'
p2797
sg4
tp2798
a((dp2799
g2
S'regional'
p2800
sg4
tp2801
a((dp2802
g2
S'centre'
p2803
sg4
tp2804
a((dp2805
g2
S'new'
p2806
sg4
tp2807
a((dp2808
g2
S'city'
p2809
sg4
tp2810
a((dp2811
g2
S'australian'
p2812
sg4
tp2813
a((dp2814
g2
S'music'
p2815
sg4
tp2816
a((dp2817
g2
S'south'
p2818
sg4
tp2819
a((dp2820
g2
S'australia'
p2821
sg4
tp2822
a((dp2823
g2
S'wagga'
p2824
sg4
tp2825
a((dp2826
g2
S'city'
p2827
sg4
tp2828
a((dp2829
g2
S'australian'
p2830
sg4
tp2831
a((dp2832
g2
S'riverina'
p2833
sg4
tp2834
a((dp2835
g2
S'south'
p2836
sg4
tp2837
a((dp2838
g2
S'australia'
p2839
sg4
tp2840
a((dp2841
g2
S'new'
p2842
sg4
tp2843
a((dp2844
g2
S'may'
p2845
sg4
tp2846
a((dp2847
g2
S'\xe2'
p2848
sg4
tp2849
a((dp2850
g2
S'\xc2'
p2851
sg4
tp2852
a((dp2853
g2
S'melbourne'
p2854
sg4
tp2855
a((dp2856
g2
S'city'
p2857
sg4
tp2858
a((dp2859
g2
S'australia'
p2860
sg4
tp2861
a((dp2862
g2
S'victoria'
p2863
sg4
tp2864
a((dp2865
g2
S'2008'
p2866
sg4
tp2867
a((dp2868
g2
S'australian'
p2869
sg4
tp2870
a((dp2871
g2
S'\xe2'
p2872
sg4
tp2873
a((dp2874
g2
S'centre'
p2875
sg4
tp2876
a((dp2877
g2
S'which'
p2878
sg4
tp2879
a((dp2880
g2
S'july'
p2881
sg4
tp2882
a((dp2883
g2
S'brisbane'
p2884
sg4
tp2885
a((dp2886
g2
S'city'
p2887
sg4
tp2888
a((dp2889
g2
S'queensland'
p2890
sg4
tp2891
a((dp2892
g2
S'australia'
p2893
sg4
tp2894
a((dp2895
g2
S'2008'
p2896
sg4
tp2897
a((dp2898
g2
S'mm'
p2899
sg4
tp2900
a((dp2901
g2
S'south'
p2902
sg4
tp2903
a((dp2904
g2
S'australian'
p2905
sg4
tp2906
a((dp2907
g2
S'\xc2'
p2908
sg4
tp2909
a((dp2910
g2
S'also'
p2911
sg4
tp2912
a((dp2913
g2
S'perth'
p2914
sg4
tp2915
a((dp2916
g2
S'australia'
p2917
sg4
tp2918
a((dp2919
g2
S'western'
p2920
sg4
tp2921
a((dp2922
g2
S'australian'
p2923
sg4
tp2924
a((dp2925
g2
S'city'
p2926
sg4
tp2927
a((dp2928
g2
S'2008'
p2929
sg4
tp2930
a((dp2931
g2
S'original'
p2932
sg4
tp2933
a((dp2934
g2
S'archived'
p2935
sg4
tp2936
a((dp2937
g2
S'area'
p2938
sg4
tp2939
a((dp2940
g2
S'state'
p2941
sg4
tp2942
a((dp2943
g2
S'adelaide'
p2944
sg4
tp2945
a((dp2946
g2
S'australia'
p2947
sg4
tp2948
a((dp2949
g2
S'south'
p2950
sg4
tp2951
a((dp2952
g2
S'city'
p2953
sg4
tp2954
a((dp2955
g2
S'australian'
p2956
sg4
tp2957
a((dp2958
g2
S'centre'
p2959
sg4
tp2960
a((dp2961
g2
S'government'
p2962
sg4
tp2963
a((dp2964
g2
S'its'
p2965
sg4
tp2966
a((dp2967
g2
S'university'
p2968
sg4
tp2969
a((dp2970
g2
S'state'
p2971
sg4
tp2972
a((dp2973
g2
S'wollongong'
p2974
sg4
tp2975
a((dp2976
g2
S'illawarra'
p2977
sg4
tp2978
a((dp2979
g2
S'city'
p2980
sg4
tp2981
a((dp2982
g2
S'south'
p2983
sg4
tp2984
a((dp2985
g2
S'new'
p2986
sg4
tp2987
a((dp2988
g2
S'area'
p2989
sg4
tp2990
a((dp2991
g2
S'kembla'
p2992
sg4
tp2993
a((dp2994
g2
S'north'
p2995
sg4
tp2996
a((dp2997
g2
S'centre'
p2998
sg4
tp2999
a((dp3000
g2
S'mount'
p3001
sg4
tp3002
a((dp3003
g2
S'canberra'
p3004
sg4
tp3005
a((dp3006
g2
S'australian'
p3007
sg4
tp3008
a((dp3009
g2
S'act'
p3010
sg4
tp3011
a((dp3012
g2
S'original'
p3013
sg4
tp3014
a((dp3015
g2
S'archived'
p3016
sg4
tp3017
a((dp3018
g2
S'national'
p3019
sg4
tp3020
a((dp3021
g2
S'capital'
p3022
sg4
tp3023
a((dp3024
g2
S'may'
p3025
sg4
tp3026
a((dp3027
g2
S'australia'
p3028
sg4
tp3029
a((dp3030
g2
S'government'
p3031
sg4
tp3032
a((dp3033
g2
S'coast'
p3034
sg4
tp3035
a((dp3036
g2
S'sunshine'
p3037
sg4
tp3038
a((dp3039
g2
S'queensland'
p3040
sg4
tp3041
a((dp3042
g2
S'noosa'
p3043
sg4
tp3044
a((dp3045
g2
S'\xe2'
p3046
sg4
tp3047
a((dp3048
g2
S'region'
p3049
sg4
tp3050
a((dp3051
g2
S'australia'
p3052
sg4
tp3053
a((dp3054
g2
S'hospital'
p3055
sg4
tp3056
a((dp3057
g2
S'nambour'
p3058
sg4
tp3059
a((dp3060
g2
S'caloundra'
p3061
sg4
tp3062
a((dp3063
g2
S'hobart'
p3064
sg4
tp3065
a((dp3066
g2
S'city'
p3067
sg4
tp3068
a((dp3069
g2
S'australian'
p3070
sg4
tp3071
a((dp3072
g2
S'tasmania'
p3073
sg4
tp3074
a((dp3075
g2
S'australia'
p3076
sg4
tp3077
a((dp3078
g2
S'also'
p3079
sg4
tp3080
a((dp3081
g2
S'\xe2'
p3082
sg4
tp3083
a((dp3084
g2
S'tasmanian'
p3085
sg4
tp3086
a((dp3087
g2
S'bay'
p3088
sg4
tp3089
a((dp3090
g2
S'new'
p3091
sg4
tp3092
a((dp3093
g2
S'geelong'
p3094
sg4
tp3095
a((dp3096
g2
S'city'
p3097
sg4
tp3098
a((dp3099
g2
S'website'
p3100
sg4
tp3101
a((dp3102
g2
S'australian'
p3103
sg4
tp3104
a((dp3105
g2
S'bay'
p3106
sg4
tp3107
a((dp3108
g2
S'melbourne'
p3109
sg4
tp3110
a((dp3111
g2
S'victoria'
p3112
sg4
tp3113
a((dp3114
g2
S'greater'
p3115
sg4
tp3116
a((dp3117
g2
S'corio'
p3118
sg4
tp3119
a((dp3120
g2
S'area'
p3121
sg4
tp3122
a((dp3123
g2
S'townsville'
p3124
sg4
tp3125
a((dp3126
g2
S'australian'
p3127
sg4
tp3128
a((dp3129
g2
S'queensland'
p3130
sg4
tp3131
a((dp3132
g2
S'city'
p3133
sg4
tp3134
a((dp3135
g2
S'north'
p3136
sg4
tp3137
a((dp3138
g2
S'august'
p3139
sg4
tp3140
a((dp3141
g2
S'18'
p3142
sg4
tp3143
a((dp3144
g2
S'australia'
p3145
sg4
tp3146
a((dp3147
g2
S'island'
p3148
sg4
tp3149
a((dp3150
g2
S'september'
p3151
sg4
tp3152
a((dp3153
g2
S'cairns'
p3154
sg4
tp3155
a((dp3156
g2
S'queensland'
p3157
sg4
tp3158
a((dp3159
g2
S'heritage'
p3160
sg4
tp3161
a((dp3162
g2
S'city'
p3163
sg4
tp3164
a((dp3165
g2
S'council'
p3166
sg4
tp3167
a((dp3168
g2
S'july'
p3169
sg4
tp3170
a((dp3171
g2
S')"'
p3172
sg4
tp3173
a((dp3174
g2
S'register'
p3175
sg4
tp3176
a((dp3177
g2
S'entry'
p3178
sg4
tp3179
a((dp3180
g2
S'located'
p3181
sg4
tp3182
a((dp3183
g2
S'darwin'
p3184
sg4
tp3185
a((dp3186
g2
S'territory'
p3187
sg4
tp3188
a((dp3189
g2
S'northern'
p3190
sg4
tp3191
a((dp3192
g2
S'city'
p3193
sg4
tp3194
a((dp3195
g2
S'australia'
p3196
sg4
tp3197
a((dp3198
g2
S'australian'
p3199
sg4
tp3200
a((dp3201
g2
S'which'
p3202
sg4
tp3203
a((dp3204
g2
S'government'
p3205
sg4
tp3206
a((dp3207
g2
S'population'
p3208
sg4
tp3209
a((dp3210
g2
S'2008'
p3211
sg4
tp3212
a((dp3213
g2
S'toowoomba'
p3214
sg4
tp3215
a((dp3216
g2
S'city'
p3217
sg4
tp3218
a((dp3219
g2
S'water'
p3220
sg4
tp3221
a((dp3222
g2
S'school'
p3223
sg4
tp3224
a((dp3225
g2
S'queensland'
p3226
sg4
tp3227
a((dp3228
g2
S'state'
p3229
sg4
tp3230
a((dp3231
g2
S'september'
p3232
sg4
tp3233
a((dp3234
g2
S'\xc2'
p3235
sg4
tp3236
a((dp3237
g2
S'au'
p3238
sg4
tp3239
a((dp3240
g2
S'://'
p3241
sg4
tp3242
a((dp3243
g2
S'ballarat'
p3244
sg4
tp3245
a((dp3246
g2
S'city'
p3247
sg4
tp3248
a((dp3249
g2
S'august'
p3250
sg4
tp3251
a((dp3252
g2
S'\xe2'
p3253
sg4
tp3254
a((dp3255
g2
S'australian'
p3256
sg4
tp3257
a((dp3258
g2
S'street'
p3259
sg4
tp3260
a((dp3261
g2
S'may'
p3262
sg4
tp3263
a((dp3264
g2
S'victoria'
p3265
sg4
tp3266
a((dp3267
g2
S'australia'
p3268
sg4
tp3269
a((dp3270
g2
S'au'
p3271
sg4
tp3272
a((dp3273
g2
S'bendigo'
p3274
sg4
tp3275
a((dp3276
g2
S'gold'
p3277
sg4
tp3278
a((dp3279
g2
S'australia'
p3280
sg4
tp3281
a((dp3282
g2
S'city'
p3283
sg4
tp3284
a((dp3285
g2
S'creek'
p3286
sg4
tp3287
a((dp3288
g2
S'melbourne'
p3289
sg4
tp3290
a((dp3291
g2
S'also'
p3292
sg4
tp3293
a((dp3294
g2
S'vic'
p3295
sg4
tp3296
a((dp3297
g2
S'1851'
p3298
sg4
tp3299
a((dp3300
g2
S'had'
p3301
sg4
tp3302
a((dp3303
g2
S'launceston'
p3304
sg4
tp3305
a((dp3306
g2
S'city'
p3307
sg4
tp3308
a((dp3309
g2
S'tasmania'
p3310
sg4
tp3311
a((dp3312
g2
S'2008'
p3313
sg4
tp3314
a((dp3315
g2
S'\xe2'
p3316
sg4
tp3317
a((dp3318
g2
S'january'
p3319
sg4
tp3320
a((dp3321
g2
S'council'
p3322
sg4
tp3323
a((dp3324
g2
S'dead'
p3325
sg4
tp3326
a((dp3327
g2
S'\xc2'
p3328
sg4
tp3329
a((dp3330
g2
S'australian'
p3331
sg4
tp3332
a((dp3333
g2
S'wodonga'
p3334
sg4
tp3335
a((dp3336
g2
S'albury'
p3337
sg4
tp3338
a((dp3339
g2
S'victoria'
p3340
sg4
tp3341
a((dp3342
g2
S'club'
p3343
sg4
tp3344
a((dp3345
g2
S'radio'
p3346
sg4
tp3347
a((dp3348
g2
S'melbourne'
p3349
sg4
tp3350
a((dp3351
g2
S'also'
p3352
sg4
tp3353
a((dp3354
g2
S'college'
p3355
sg4
tp3356
a((dp3357
g2
S'fm'
p3358
sg4
tp3359
a((dp3360
g2
S'school'
p3361
sg4
tp3362
a((dp3363
g2
S'albury'
p3364
sg4
tp3365
a((dp3366
g2
S'south'
p3367
sg4
tp3368
a((dp3369
g2
S'city'
p3370
sg4
tp3371
a((dp3372
g2
S'murray'
p3373
sg4
tp3374
a((dp3375
g2
S'hume'
p3376
sg4
tp3377
a((dp3378
g2
S'wodonga'
p3379
sg4
tp3380
a((dp3381
g2
S'new'
p3382
sg4
tp3383
a((dp3384
g2
S'australia'
p3385
sg4
tp3386
a((dp3387
g2
S'river'
p3388
sg4
tp3389
a((dp3390
g2
S'wales'
p3391
sg4
tp3392
a((dp3393
g2
S'rockhampton'
p3394
sg4
tp3395
a((dp3396
g2
S'queensland'
p3397
sg4
tp3398
a((dp3399
g2
S'heritage'
p3400
sg4
tp3401
a((dp3402
g2
S'council'
p3403
sg4
tp3404
a((dp3405
g2
S'street'
p3406
sg4
tp3407
a((dp3408
g2
S'july'
p3409
sg4
tp3410
a((dp3411
g2
S')"'
p3412
sg4
tp3413
a((dp3414
g2
S'entry'
p3415
sg4
tp3416
a((dp3417
g2
S'register'
p3418
sg4
tp3419
a((dp3420
g2
S'city'
p3421
sg4
tp3422
a((dp3423
g2
S'bundaberg'
p3424
sg4
tp3425
a((dp3426
g2
S'queensland'
p3427
sg4
tp3428
a((dp3429
g2
S'heritage'
p3430
sg4
tp3431
a((dp3432
g2
S'street'
p3433
sg4
tp3434
a((dp3435
g2
S'city'
p3436
sg4
tp3437
a((dp3438
g2
S'council'
p3439
sg4
tp3440
a((dp3441
g2
S')"'
p3442
sg4
tp3443
a((dp3444
g2
S'entry'
p3445
sg4
tp3446
a((dp3447
g2
S'register'
p3448
sg4
tp3449
a((dp3450
g2
S'burnett'
p3451
sg4
tp3452
a((dp3453
g2
S'bunbury'
p3454
sg4
tp3455
a((dp3456
g2
S'australia'
p3457
sg4
tp3458
a((dp3459
g2
S'western'
p3460
sg4
tp3461
a((dp3462
g2
S'forrest'
p3463
sg4
tp3464
a((dp3465
g2
S'australian'
p3466
sg4
tp3467
a((dp3468
g2
S'west'
p3469
sg4
tp3470
a((dp3471
g2
S'city'
p3472
sg4
tp3473
a((dp3474
g2
S'\xe2'
p3475
sg4
tp3476
a((dp3477
g2
S'south'
p3478
sg4
tp3479
a((dp3480
g2
S'perth'
p3481
sg4
tp3482
a((dp3483
g2
S'coffs'
p3484
sg4
tp3485
a((dp3486
g2
S'harbour'
p3487
sg4
tp3488
a((dp3489
g2
S'coast'
p3490
sg4
tp3491
a((dp3492
g2
S'\xe2'
p3493
sg4
tp3494
a((dp3495
g2
S'city'
p3496
sg4
tp3497
a((dp3498
g2
S'north'
p3499
sg4
tp3500
a((dp3501
g2
S'south'
p3502
sg4
tp3503
a((dp3504
g2
S'park'
p3505
sg4
tp3506
a((dp3507
g2
S'national'
p3508
sg4
tp3509
a((dp3510
g2
S'australia'
p3511
sg4
tp3512
a((dp3513
g2
S'bay'
p3514
sg4
tp3515
a((dp3516
g2
S'hervey'
p3517
sg4
tp3518
a((dp3519
g2
S'may'
p3520
sg4
tp3521
a((dp3522
g2
S'\xc2'
p3523
sg4
tp3524
a((dp3525
g2
S'fraser'
p3526
sg4
tp3527
a((dp3528
g2
S'island'
p3529
sg4
tp3530
a((dp3531
g2
S'queensland'
p3532
sg4
tp3533
a((dp3534
g2
S'city'
p3535
sg4
tp3536
a((dp3537
g2
S'coast'
p3538
sg4
tp3539
a((dp3540
g2
S'state'
p3541
sg4
tp3542
a((dp3543
g2
S'albany'
p3544
sg4
tp3545
a((dp3546
g2
S'australia'
p3547
sg4
tp3548
a((dp3549
g2
S'western'
p3550
sg4
tp3551
a((dp3552
g2
S'australian'
p3553
sg4
tp3554
a((dp3555
g2
S'city'
p3556
sg4
tp3557
a((dp3558
g2
S'southern'
p3559
sg4
tp3560
a((dp3561
g2
S'king'
p3562
sg4
tp3563
a((dp3564
g2
S'port'
p3565
sg4
tp3566
a((dp3567
g2
S'george'
p3568
sg4
tp3569
a((dp3570
g2
S'perth'
p3571
sg4
tp3572
a((dp3573
g2
S'sydney'
p3574
sg4
tp3575
a((dp3576
g2
S'city'
p3577
sg4
tp3578
a((dp3579
g2
S'australia'
p3580
sg4
tp3581
a((dp3582
g2
S'australian'
p3583
sg4
tp3584
a((dp3585
g2
S'south'
p3586
sg4
tp3587
a((dp3588
g2
S'new'
p3589
sg4
tp3590
a((dp3591
g2
S'government'
p3592
sg4
tp3593
a((dp3594
g2
S'wales'
p3595
sg4
tp3596
a((dp3597
g2
S'\xc2'
p3598
sg4
tp3599
a((dp3600
g2
S'\xe2'
p3601
sg4
tp3602
a((dp3603
g2
S'albury'
p3604
sg4
tp3605
a((dp3606
g2
S'south'
p3607
sg4
tp3608
a((dp3609
g2
S'city'
p3610
sg4
tp3611
a((dp3612
g2
S'murray'
p3613
sg4
tp3614
a((dp3615
g2
S'hume'
p3616
sg4
tp3617
a((dp3618
g2
S'wodonga'
p3619
sg4
tp3620
a((dp3621
g2
S'new'
p3622
sg4
tp3623
a((dp3624
g2
S'australia'
p3625
sg4
tp3626
a((dp3627
g2
S'river'
p3628
sg4
tp3629
a((dp3630
g2
S'wales'
p3631
sg4
tp3632
a((dp3633
g2
S'armidale'
p3634
sg4
tp3635
a((dp3636
g2
S'new'
p3637
sg4
tp3638
a((dp3639
g2
S'city'
p3640
sg4
tp3641
a((dp3642
g2
S'england'
p3643
sg4
tp3644
a((dp3645
g2
S'south'
p3646
sg4
tp3647
a((dp3648
g2
S'\xc2'
p3649
sg4
tp3650
a((dp3651
g2
S'c'
p3652
sg4
tp3653
a((dp3654
g2
S'school'
p3655
sg4
tp3656
a((dp3657
g2
S'university'
p3658
sg4
tp3659
a((dp3660
g2
S'australia'
p3661
sg4
tp3662
a((dp3663
g2
S'bathurst'
p3664
sg4
tp3665
a((dp3666
g2
S'\xe2'
p3667
sg4
tp3668
a((dp3669
g2
S'march'
p3670
sg4
tp3671
a((dp3672
g2
S'regional'
p3673
sg4
tp3674
a((dp3675
g2
S'city'
p3676
sg4
tp3677
a((dp3678
g2
S'nsw'
p3679
sg4
tp3680
a((dp3681
g2
S'new'
p3682
sg4
tp3683
a((dp3684
g2
S'australian'
p3685
sg4
tp3686
a((dp3687
g2
S'centre'
p3688
sg4
tp3689
a((dp3690
g2
S'council'
p3691
sg4
tp3692
a((dp3693
g2
S'mountains'
p3694
sg4
tp3695
a((dp3696
g2
S'blue'
p3697
sg4
tp3698
a((dp3699
g2
S'city'
p3700
sg4
tp3701
a((dp3702
g2
S'council'
p3703
sg4
tp3704
a((dp3705
g2
S'south'
p3706
sg4
tp3707
a((dp3708
g2
S'new'
p3709
sg4
tp3710
a((dp3711
g2
S'wales'
p3712
sg4
tp3713
a((dp3714
g2
S'government'
p3715
sg4
tp3716
a((dp3717
g2
S'local'
p3718
sg4
tp3719
a((dp3720
g2
S'youth'
p3721
sg4
tp3722
a((dp3723
g2
S'broken'
p3724
sg4
tp3725
a((dp3726
g2
S'hill'
p3727
sg4
tp3728
a((dp3729
g2
S'\xe2'
p3730
sg4
tp3731
a((dp3732
g2
S'south'
p3733
sg4
tp3734
a((dp3735
g2
S'australia'
p3736
sg4
tp3737
a((dp3738
g2
S'new'
p3739
sg4
tp3740
a((dp3741
g2
S'mining'
p3742
sg4
tp3743
a((dp3744
g2
S'wales'
p3745
sg4
tp3746
a((dp3747
g2
S'sydney'
p3748
sg4
tp3749
a((dp3750
g2
S'city'
p3751
sg4
tp3752
a((dp3753
g2
S'campbelltown'
p3754
sg4
tp3755
a((dp3756
g2
S'south'
p3757
sg4
tp3758
a((dp3759
g2
S'\xe2'
p3760
sg4
tp3761
a((dp3762
g2
S'sydney'
p3763
sg4
tp3764
a((dp3765
g2
S'macarthur'
p3766
sg4
tp3767
a((dp3768
g2
S'street'
p3769
sg4
tp3770
a((dp3771
g2
S'new'
p3772
sg4
tp3773
a((dp3774
g2
S'wales'
p3775
sg4
tp3776
a((dp3777
g2
S'2008'
p3778
sg4
tp3779
a((dp3780
g2
S'area'
p3781
sg4
tp3782
a((dp3783
g2
S'cessnock'
p3784
sg4
tp3785
a((dp3786
g2
S'hunter'
p3787
sg4
tp3788
a((dp3789
g2
S'new'
p3790
sg4
tp3791
a((dp3792
g2
S'south'
p3793
sg4
tp3794
a((dp3795
g2
S'city'
p3796
sg4
tp3797
a((dp3798
g2
S'newcastle'
p3799
sg4
tp3800
a((dp3801
g2
S'kurri'
p3802
sg4
tp3803
a((dp3804
g2
S'\xe2'
p3805
sg4
tp3806
a((dp3807
g2
S'wales'
p3808
sg4
tp3809
a((dp3810
g2
S'\xc2'
p3811
sg4
tp3812
a((dp3813
g2
S'dubbo'
p3814
sg4
tp3815
a((dp3816
g2
S'\xe2'
p3817
sg4
tp3818
a((dp3819
g2
S'city'
p3820
sg4
tp3821
a((dp3822
g2
S'south'
p3823
sg4
tp3824
a((dp3825
g2
S'australian'
p3826
sg4
tp3827
a((dp3828
g2
S'also'
p3829
sg4
tp3830
a((dp3831
g2
S'local'
p3832
sg4
tp3833
a((dp3834
g2
S'new'
p3835
sg4
tp3836
a((dp3837
g2
S'station'
p3838
sg4
tp3839
a((dp3840
g2
S'area'
p3841
sg4
tp3842
a((dp3843
g2
S'goulburn'
p3844
sg4
tp3845
a((dp3846
g2
S'south'
p3847
sg4
tp3848
a((dp3849
g2
S'new'
p3850
sg4
tp3851
a((dp3852
g2
S'wales'
p3853
sg4
tp3854
a((dp3855
g2
S'\xc2'
p3856
sg4
tp3857
a((dp3858
g2
S'australia'
p3859
sg4
tp3860
a((dp3861
g2
S'local'
p3862
sg4
tp3863
a((dp3864
g2
S'australian'
p3865
sg4
tp3866
a((dp3867
g2
S'police'
p3868
sg4
tp3869
a((dp3870
g2
S'station'
p3871
sg4
tp3872
a((dp3873
g2
S'grafton'
p3874
sg4
tp3875
a((dp3876
g2
S'school'
p3877
sg4
tp3878
a((dp3879
g2
S'south'
p3880
sg4
tp3881
a((dp3882
g2
S'born'
p3883
sg4
tp3884
a((dp3885
g2
S'clarence'
p3886
sg4
tp3887
a((dp3888
g2
S'fm'
p3889
sg4
tp3890
a((dp3891
g2
S'\xe2'
p3892
sg4
tp3893
a((dp3894
g2
S'\xc2'
p3895
sg4
tp3896
a((dp3897
g2
S'australia'
p3898
sg4
tp3899
a((dp3900
g2
S'australian'
p3901
sg4
tp3902
a((dp3903
g2
S'lithgow'
p3904
sg4
tp3905
a((dp3906
g2
S'south'
p3907
sg4
tp3908
a((dp3909
g2
S'new'
p3910
sg4
tp3911
a((dp3912
g2
S'wales'
p3913
sg4
tp3914
a((dp3915
g2
S'\xe2'
p3916
sg4
tp3917
a((dp3918
g2
S'\xc2'
p3919
sg4
tp3920
a((dp3921
g2
S'18'
p3922
sg4
tp3923
a((dp3924
g2
S'australia'
p3925
sg4
tp3926
a((dp3927
g2
S'33'
p3928
sg4
tp3929
a((dp3930
g2
S'which'
p3931
sg4
tp3932
a((dp3933
g2
S'liverpool'
p3934
sg4
tp3935
a((dp3936
g2
S'sydney'
p3937
sg4
tp3938
a((dp3939
g2
S'28'
p3940
sg4
tp3941
a((dp3942
g2
S'south'
p3943
sg4
tp3944
a((dp3945
g2
S'city'
p3946
sg4
tp3947
a((dp3948
g2
S'centre'
p3949
sg4
tp3950
a((dp3951
g2
S'australian'
p3952
sg4
tp3953
a((dp3954
g2
S'\xe2'
p3955
sg4
tp3956
a((dp3957
g2
S'electoral'
p3958
sg4
tp3959
a((dp3960
g2
S'new'
p3961
sg4
tp3962
a((dp3963
g2
S'newcastle'
p3964
sg4
tp3965
a((dp3966
g2
S'hunter'
p3967
sg4
tp3968
a((dp3969
g2
S'new'
p3970
sg4
tp3971
a((dp3972
g2
S'city'
p3973
sg4
tp3974
a((dp3975
g2
S'south'
p3976
sg4
tp3977
a((dp3978
g2
S'australian'
p3979
sg4
tp3980
a((dp3981
g2
S'coal'
p3982
sg4
tp3983
a((dp3984
g2
S'2008'
p3985
sg4
tp3986
a((dp3987
g2
S'australia'
p3988
sg4
tp3989
a((dp3990
g2
S'wales'
p3991
sg4
tp3992
a((dp3993
g2
S'orange'
p3994
sg4
tp3995
a((dp3996
g2
S'australian'
p3997
sg4
tp3998
a((dp3999
g2
S'school'
p4000
sg4
tp4001
a((dp4002
g2
S'south'
p4003
sg4
tp4004
a((dp4005
g2
S'australia'
p4006
sg4
tp4007
a((dp4008
g2
S'city'
p4009
sg4
tp4010
a((dp4011
g2
S'also'
p4012
sg4
tp4013
a((dp4014
g2
S'new'
p4015
sg4
tp4016
a((dp4017
g2
S'national'
p4018
sg4
tp4019
a((dp4020
g2
S'public'
p4021
sg4
tp4022
a((dp4023
g2
S'parramatta'
p4024
sg4
tp4025
a((dp4026
g2
S'sydney'
p4027
sg4
tp4028
a((dp4029
g2
S'new'
p4030
sg4
tp4031
a((dp4032
g2
S'school'
p4033
sg4
tp4034
a((dp4035
g2
S'south'
p4036
sg4
tp4037
a((dp4038
g2
S'street'
p4039
sg4
tp4040
a((dp4041
g2
S'wales'
p4042
sg4
tp4043
a((dp4044
g2
S'river'
p4045
sg4
tp4046
a((dp4047
g2
S'2008'
p4048
sg4
tp4049
a((dp4050
g2
S'australia'
p4051
sg4
tp4052
a((dp4053
g2
S'penrith'
p4054
sg4
tp4055
a((dp4056
g2
S'sydney'
p4057
sg4
tp4058
a((dp4059
g2
S'nepean'
p4060
sg4
tp4061
a((dp4062
g2
S'city'
p4063
sg4
tp4064
a((dp4065
g2
S'western'
p4066
sg4
tp4067
a((dp4068
g2
S'south'
p4069
sg4
tp4070
a((dp4071
g2
S'which'
p4072
sg4
tp4073
a((dp4074
g2
S'18'
p4075
sg4
tp4076
a((dp4077
g2
S'area'
p4078
sg4
tp4079
a((dp4080
g2
S'\xc2'
p4081
sg4
tp4082
a((dp4083
g2
S'queanbeyan'
p4084
sg4
tp4085
a((dp4086
g2
S'south'
p4087
sg4
tp4088
a((dp4089
g2
S'canberra'
p4090
sg4
tp4091
a((dp4092
g2
S'australian'
p4093
sg4
tp4094
a((dp4095
g2
S'new'
p4096
sg4
tp4097
a((dp4098
g2
S'city'
p4099
sg4
tp4100
a((dp4101
g2
S'wales'
p4102
sg4
tp4103
a((dp4104
g2
S'centre'
p4105
sg4
tp4106
a((dp4107
g2
S'local'
p4108
sg4
tp4109
a((dp4110
g2
S'player'
p4111
sg4
tp4112
a((dp4113
g2
S'tamworth'
p4114
sg4
tp4115
a((dp4116
g2
S'\xe2'
p4117
sg4
tp4118
a((dp4119
g2
S'regional'
p4120
sg4
tp4121
a((dp4122
g2
S'centre'
p4123
sg4
tp4124
a((dp4125
g2
S'new'
p4126
sg4
tp4127
a((dp4128
g2
S'city'
p4129
sg4
tp4130
a((dp4131
g2
S'australian'
p4132
sg4
tp4133
a((dp4134
g2
S'music'
p4135
sg4
tp4136
a((dp4137
g2
S'south'
p4138
sg4
tp4139
a((dp4140
g2
S'australia'
p4141
sg4
tp4142
a((dp4143
g2
S'wagga'
p4144
sg4
tp4145
a((dp4146
g2
S'city'
p4147
sg4
tp4148
a((dp4149
g2
S'australian'
p4150
sg4
tp4151
a((dp4152
g2
S'riverina'
p4153
sg4
tp4154
a((dp4155
g2
S'south'
p4156
sg4
tp4157
a((dp4158
g2
S'australia'
p4159
sg4
tp4160
a((dp4161
g2
S'new'
p4162
sg4
tp4163
a((dp4164
g2
S'may'
p4165
sg4
tp4166
a((dp4167
g2
S'\xe2'
p4168
sg4
tp4169
a((dp4170
g2
S'\xc2'
p4171
sg4
tp4172
a((dp4173
g2
S'wollongong'
p4174
sg4
tp4175
a((dp4176
g2
S'illawarra'
p4177
sg4
tp4178
a((dp4179
g2
S'city'
p4180
sg4
tp4181
a((dp4182
g2
S'south'
p4183
sg4
tp4184
a((dp4185
g2
S'new'
p4186
sg4
tp4187
a((dp4188
g2
S'area'
p4189
sg4
tp4190
a((dp4191
g2
S'kembla'
p4192
sg4
tp4193
a((dp4194
g2
S'north'
p4195
sg4
tp4196
a((dp4197
g2
S'centre'
p4198
sg4
tp4199
a((dp4200
g2
S'mount'
p4201
sg4
tp4202
a((dp4203
g2
S'brisbane'
p4204
sg4
tp4205
a((dp4206
g2
S'city'
p4207
sg4
tp4208
a((dp4209
g2
S'queensland'
p4210
sg4
tp4211
a((dp4212
g2
S'australia'
p4213
sg4
tp4214
a((dp4215
g2
S'2008'
p4216
sg4
tp4217
a((dp4218
g2
S'mm'
p4219
sg4
tp4220
a((dp4221
g2
S'south'
p4222
sg4
tp4223
a((dp4224
g2
S'australian'
p4225
sg4
tp4226
a((dp4227
g2
S'\xc2'
p4228
sg4
tp4229
a((dp4230
g2
S'also'
p4231
sg4
tp4232
a((dp4233
g2
S'gympie'
p4234
sg4
tp4235
a((dp4236
g2
S'queensland'
p4237
sg4
tp4238
a((dp4239
g2
S'heritage'
p4240
sg4
tp4241
a((dp4242
g2
S'council'
p4243
sg4
tp4244
a((dp4245
g2
S'mary'
p4246
sg4
tp4247
a((dp4248
g2
S'register'
p4249
sg4
tp4250
a((dp4251
g2
S'may'
p4252
sg4
tp4253
a((dp4254
g2
S')"'
p4255
sg4
tp4256
a((dp4257
g2
S'08'
p4258
sg4
tp4259
a((dp4260
g2
S'entry'
p4261
sg4
tp4262
a((dp4263
g2
S'bundaberg'
p4264
sg4
tp4265
a((dp4266
g2
S'queensland'
p4267
sg4
tp4268
a((dp4269
g2
S'heritage'
p4270
sg4
tp4271
a((dp4272
g2
S'street'
p4273
sg4
tp4274
a((dp4275
g2
S'city'
p4276
sg4
tp4277
a((dp4278
g2
S'council'
p4279
sg4
tp4280
a((dp4281
g2
S')"'
p4282
sg4
tp4283
a((dp4284
g2
S'entry'
p4285
sg4
tp4286
a((dp4287
g2
S'register'
p4288
sg4
tp4289
a((dp4290
g2
S'burnett'
p4291
sg4
tp4292
a((dp4293
g2
S'cairns'
p4294
sg4
tp4295
a((dp4296
g2
S'queensland'
p4297
sg4
tp4298
a((dp4299
g2
S'heritage'
p4300
sg4
tp4301
a((dp4302
g2
S'city'
p4303
sg4
tp4304
a((dp4305
g2
S'council'
p4306
sg4
tp4307
a((dp4308
g2
S'july'
p4309
sg4
tp4310
a((dp4311
g2
S')"'
p4312
sg4
tp4313
a((dp4314
g2
S'register'
p4315
sg4
tp4316
a((dp4317
g2
S'entry'
p4318
sg4
tp4319
a((dp4320
g2
S'located'
p4321
sg4
tp4322
a((dp4323
g2
S'caloundra'
p4324
sg4
tp4325
a((dp4326
g2
S'beach'
p4327
sg4
tp4328
a((dp4329
g2
S'queensland'
p4330
sg4
tp4331
a((dp4332
g2
S'bulcock'
p4333
sg4
tp4334
a((dp4335
g2
S'creek'
p4336
sg4
tp4337
a((dp4338
g2
S'21'
p4339
sg4
tp4340
a((dp4341
g2
S'area'
p4342
sg4
tp4343
a((dp4344
g2
S'coast'
p4345
sg4
tp4346
a((dp4347
g2
S'june'
p4348
sg4
tp4349
a((dp4350
g2
S'north'
p4351
sg4
tp4352
a((dp4353
g2
S'gladstone'
p4354
sg4
tp4355
a((dp4356
g2
S'queensland'
p4357
sg4
tp4358
a((dp4359
g2
S'heritage'
p4360
sg4
tp4361
a((dp4362
g2
S'port'
p4363
sg4
tp4364
a((dp4365
g2
S'council'
p4366
sg4
tp4367
a((dp4368
g2
S')"'
p4369
sg4
tp4370
a((dp4371
g2
S'\xc2'
p4372
sg4
tp4373
a((dp4374
g2
S'08'
p4375
sg4
tp4376
a((dp4377
g2
S'entry'
p4378
sg4
tp4379
a((dp4380
g2
S'register'
p4381
sg4
tp4382
a((dp4383
g2
S'coast'
p4384
sg4
tp4385
a((dp4386
g2
S'gold'
p4387
sg4
tp4388
a((dp4389
g2
S'city'
p4390
sg4
tp4391
a((dp4392
g2
S'beach'
p4393
sg4
tp4394
a((dp4395
g2
S'queensland'
p4396
sg4
tp4397
a((dp4398
g2
S'australia'
p4399
sg4
tp4400
a((dp4401
g2
S'south'
p4402
sg4
tp4403
a((dp4404
g2
S'water'
p4405
sg4
tp4406
a((dp4407
g2
S'brisbane'
p4408
sg4
tp4409
a((dp4410
g2
S'new'
p4411
sg4
tp4412
a((dp4413
g2
S'bay'
p4414
sg4
tp4415
a((dp4416
g2
S'hervey'
p4417
sg4
tp4418
a((dp4419
g2
S'may'
p4420
sg4
tp4421
a((dp4422
g2
S'\xc2'
p4423
sg4
tp4424
a((dp4425
g2
S'fraser'
p4426
sg4
tp4427
a((dp4428
g2
S'island'
p4429
sg4
tp4430
a((dp4431
g2
S'queensland'
p4432
sg4
tp4433
a((dp4434
g2
S'city'
p4435
sg4
tp4436
a((dp4437
g2
S'coast'
p4438
sg4
tp4439
a((dp4440
g2
S'state'
p4441
sg4
tp4442
a((dp4443
g2
S'ipswich'
p4444
sg4
tp4445
a((dp4446
g2
S'queensland'
p4447
sg4
tp4448
a((dp4449
g2
S'school'
p4450
sg4
tp4451
a((dp4452
g2
S'state'
p4453
sg4
tp4454
a((dp4455
g2
S'brisbane'
p4456
sg4
tp4457
a((dp4458
g2
S'city'
p4459
sg4
tp4460
a((dp4461
g2
S'primary'
p4462
sg4
tp4463
a((dp4464
g2
S'australia'
p4465
sg4
tp4466
a((dp4467
g2
S'festival'
p4468
sg4
tp4469
a((dp4470
g2
S'australian'
p4471
sg4
tp4472
a((dp4473
g2
S'logan'
p4474
sg4
tp4475
a((dp4476
g2
S'city'
p4477
sg4
tp4478
a((dp4479
g2
S'local'
p4480
sg4
tp4481
a((dp4482
g2
S'queensland'
p4483
sg4
tp4484
a((dp4485
g2
S'coast'
p4486
sg4
tp4487
a((dp4488
g2
S'government'
p4489
sg4
tp4490
a((dp4491
g2
S'south'
p4492
sg4
tp4493
a((dp4494
g2
S'brisbane'
p4495
sg4
tp4496
a((dp4497
g2
S'park'
p4498
sg4
tp4499
a((dp4500
g2
S'gold'
p4501
sg4
tp4502
a((dp4503
g2
S'mackay'
p4504
sg4
tp4505
a((dp4506
g2
S'queensland'
p4507
sg4
tp4508
a((dp4509
g2
S'heritage'
p4510
sg4
tp4511
a((dp4512
g2
S'city'
p4513
sg4
tp4514
a((dp4515
g2
S'council'
p4516
sg4
tp4517
a((dp4518
g2
S'\xc2'
p4519
sg4
tp4520
a((dp4521
g2
S'sugar'
p4522
sg4
tp4523
a((dp4524
g2
S'street'
p4525
sg4
tp4526
a((dp4527
g2
S')"'
p4528
sg4
tp4529
a((dp4530
g2
S'pioneer'
p4531
sg4
tp4532
a((dp4533
g2
S'queensland'
p4534
sg4
tp4535
a((dp4536
g2
S'maryborough'
p4537
sg4
tp4538
a((dp4539
g2
S'heritage'
p4540
sg4
tp4541
a((dp4542
g2
S'street'
p4543
sg4
tp4544
a((dp4545
g2
S'council'
p4546
sg4
tp4547
a((dp4548
g2
S')"'
p4549
sg4
tp4550
a((dp4551
g2
S'entry'
p4552
sg4
tp4553
a((dp4554
g2
S'register'
p4555
sg4
tp4556
a((dp4557
g2
S'city'
p4558
sg4
tp4559
a((dp4560
g2
S'former'
p4561
sg4
tp4562
a((dp4563
g2
S'mount'
p4564
sg4
tp4565
a((dp4566
g2
S'queensland'
p4567
sg4
tp4568
a((dp4569
g2
S'city'
p4570
sg4
tp4571
a((dp4572
g2
S'heritage'
p4573
sg4
tp4574
a((dp4575
g2
S'school'
p4576
sg4
tp4577
a((dp4578
g2
S'state'
p4579
sg4
tp4580
a((dp4581
g2
S'\xc2'
p4582
sg4
tp4583
a((dp4584
g2
S'\xe2'
p4585
sg4
tp4586
a((dp4587
g2
S'australia'
p4588
sg4
tp4589
a((dp4590
g2
S'also'
p4591
sg4
tp4592
a((dp4593
g2
S'rockhampton'
p4594
sg4
tp4595
a((dp4596
g2
S'queensland'
p4597
sg4
tp4598
a((dp4599
g2
S'heritage'
p4600
sg4
tp4601
a((dp4602
g2
S'council'
p4603
sg4
tp4604
a((dp4605
g2
S'street'
p4606
sg4
tp4607
a((dp4608
g2
S'july'
p4609
sg4
tp4610
a((dp4611
g2
S')"'
p4612
sg4
tp4613
a((dp4614
g2
S'entry'
p4615
sg4
tp4616
a((dp4617
g2
S'register'
p4618
sg4
tp4619
a((dp4620
g2
S'city'
p4621
sg4
tp4622
a((dp4623
g2
S'coast'
p4624
sg4
tp4625
a((dp4626
g2
S'sunshine'
p4627
sg4
tp4628
a((dp4629
g2
S'queensland'
p4630
sg4
tp4631
a((dp4632
g2
S'noosa'
p4633
sg4
tp4634
a((dp4635
g2
S'\xe2'
p4636
sg4
tp4637
a((dp4638
g2
S'region'
p4639
sg4
tp4640
a((dp4641
g2
S'australia'
p4642
sg4
tp4643
a((dp4644
g2
S'hospital'
p4645
sg4
tp4646
a((dp4647
g2
S'nambour'
p4648
sg4
tp4649
a((dp4650
g2
S'caloundra'
p4651
sg4
tp4652
a((dp4653
g2
S'toowoomba'
p4654
sg4
tp4655
a((dp4656
g2
S'city'
p4657
sg4
tp4658
a((dp4659
g2
S'water'
p4660
sg4
tp4661
a((dp4662
g2
S'school'
p4663
sg4
tp4664
a((dp4665
g2
S'queensland'
p4666
sg4
tp4667
a((dp4668
g2
S'state'
p4669
sg4
tp4670
a((dp4671
g2
S'september'
p4672
sg4
tp4673
a((dp4674
g2
S'\xc2'
p4675
sg4
tp4676
a((dp4677
g2
S'au'
p4678
sg4
tp4679
a((dp4680
g2
S'://'
p4681
sg4
tp4682
a((dp4683
g2
S'townsville'
p4684
sg4
tp4685
a((dp4686
g2
S'australian'
p4687
sg4
tp4688
a((dp4689
g2
S'queensland'
p4690
sg4
tp4691
a((dp4692
g2
S'city'
p4693
sg4
tp4694
a((dp4695
g2
S'north'
p4696
sg4
tp4697
a((dp4698
g2
S'august'
p4699
sg4
tp4700
a((dp4701
g2
S'18'
p4702
sg4
tp4703
a((dp4704
g2
S'australia'
p4705
sg4
tp4706
a((dp4707
g2
S'island'
p4708
sg4
tp4709
a((dp4710
g2
S'september'
p4711
sg4
tp4712
a((dp4713
g2
S'adelaide'
p4714
sg4
tp4715
a((dp4716
g2
S'australia'
p4717
sg4
tp4718
a((dp4719
g2
S'south'
p4720
sg4
tp4721
a((dp4722
g2
S'city'
p4723
sg4
tp4724
a((dp4725
g2
S'australian'
p4726
sg4
tp4727
a((dp4728
g2
S'centre'
p4729
sg4
tp4730
a((dp4731
g2
S'government'
p4732
sg4
tp4733
a((dp4734
g2
S'its'
p4735
sg4
tp4736
a((dp4737
g2
S'university'
p4738
sg4
tp4739
a((dp4740
g2
S'state'
p4741
sg4
tp4742
a((dp4743
g2
S'barker'
p4744
sg4
tp4745
a((dp4746
g2
S'mount'
p4747
sg4
tp4748
a((dp4749
g2
S'south'
p4750
sg4
tp4751
a((dp4752
g2
S'adelaide'
p4753
sg4
tp4754
a((dp4755
g2
S'australia'
p4756
sg4
tp4757
a((dp4758
g2
S'also'
p4759
sg4
tp4760
a((dp4761
g2
S'state'
p4762
sg4
tp4763
a((dp4764
g2
S'which'
p4765
sg4
tp4766
a((dp4767
g2
S'council'
p4768
sg4
tp4769
a((dp4770
g2
S'average'
p4771
sg4
tp4772
a((dp4773
g2
S'gambier'
p4774
sg4
tp4775
a((dp4776
g2
S'mount'
p4777
sg4
tp4778
a((dp4779
g2
S'south'
p4780
sg4
tp4781
a((dp4782
g2
S'australia'
p4783
sg4
tp4784
a((dp4785
g2
S'city'
p4786
sg4
tp4787
a((dp4788
g2
S'australian'
p4789
sg4
tp4790
a((dp4791
g2
S'\xe2'
p4792
sg4
tp4793
a((dp4794
g2
S'area'
p4795
sg4
tp4796
a((dp4797
g2
S'council'
p4798
sg4
tp4799
a((dp4800
g2
S'adelaide'
p4801
sg4
tp4802
a((dp4803
g2
S'murray'
p4804
sg4
tp4805
a((dp4806
g2
S'bridge'
p4807
sg4
tp4808
a((dp4809
g2
S'australian'
p4810
sg4
tp4811
a((dp4812
g2
S'south'
p4813
sg4
tp4814
a((dp4815
g2
S'australia'
p4816
sg4
tp4817
a((dp4818
g2
S'city'
p4819
sg4
tp4820
a((dp4821
g2
S'adelaide'
p4822
sg4
tp4823
a((dp4824
g2
S'state'
p4825
sg4
tp4826
a((dp4827
g2
S'road'
p4828
sg4
tp4829
a((dp4830
g2
S'\xe2'
p4831
sg4
tp4832
a((dp4833
g2
S'port'
p4834
sg4
tp4835
a((dp4836
g2
S'adelaide'
p4837
sg4
tp4838
a((dp4839
g2
S'south'
p4840
sg4
tp4841
a((dp4842
g2
S'museum'
p4843
sg4
tp4844
a((dp4845
g2
S'australian'
p4846
sg4
tp4847
a((dp4848
g2
S'australia'
p4849
sg4
tp4850
a((dp4851
g2
S'hotel'
p4852
sg4
tp4853
a((dp4854
g2
S'parsons'
p4855
sg4
tp4856
a((dp4857
g2
S'railway'
p4858
sg4
tp4859
a((dp4860
g2
S'february'
p4861
sg4
tp4862
a((dp4863
g2
S'port'
p4864
sg4
tp4865
a((dp4866
g2
S'augusta'
p4867
sg4
tp4868
a((dp4869
g2
S'australia'
p4870
sg4
tp4871
a((dp4872
g2
S'island'
p4873
sg4
tp4874
a((dp4875
g2
S'south'
p4876
sg4
tp4877
a((dp4878
g2
S'bay'
p4879
sg4
tp4880
a((dp4881
g2
S'australian'
p4882
sg4
tp4883
a((dp4884
g2
S'adelaide'
p4885
sg4
tp4886
a((dp4887
g2
S'railway'
p4888
sg4
tp4889
a((dp4890
g2
S'school'
p4891
sg4
tp4892
a((dp4893
g2
S'port'
p4894
sg4
tp4895
a((dp4896
g2
S'pirie'
p4897
sg4
tp4898
a((dp4899
g2
S'australia'
p4900
sg4
tp4901
a((dp4902
g2
S'lead'
p4903
sg4
tp4904
a((dp4905
g2
S'south'
p4906
sg4
tp4907
a((dp4908
g2
S'smelter'
p4909
sg4
tp4910
a((dp4911
g2
S'been'
p4912
sg4
tp4913
a((dp4914
g2
S'state'
p4915
sg4
tp4916
a((dp4917
g2
S'which'
p4918
sg4
tp4919
a((dp4920
g2
S'28'
p4921
sg4
tp4922
a((dp4923
g2
S'port'
p4924
sg4
tp4925
a((dp4926
g2
S'lincoln'
p4927
sg4
tp4928
a((dp4929
g2
S'\xc2'
p4930
sg4
tp4931
a((dp4932
g2
S'bay'
p4933
sg4
tp4934
a((dp4935
g2
S'island'
p4936
sg4
tp4937
a((dp4938
g2
S'australian'
p4939
sg4
tp4940
a((dp4941
g2
S'south'
p4942
sg4
tp4943
a((dp4944
g2
S'australia'
p4945
sg4
tp4946
a((dp4947
g2
S'city'
p4948
sg4
tp4949
a((dp4950
g2
S'eyre'
p4951
sg4
tp4952
a((dp4953
g2
S'victor'
p4954
sg4
tp4955
a((dp4956
g2
S'harbor'
p4957
sg4
tp4958
a((dp4959
g2
S'south'
p4960
sg4
tp4961
a((dp4962
g2
S'australia'
p4963
sg4
tp4964
a((dp4965
g2
S'city'
p4966
sg4
tp4967
a((dp4968
g2
S'australian'
p4969
sg4
tp4970
a((dp4971
g2
S'port'
p4972
sg4
tp4973
a((dp4974
g2
S'island'
p4975
sg4
tp4976
a((dp4977
g2
S'coast'
p4978
sg4
tp4979
a((dp4980
g2
S'peninsula'
p4981
sg4
tp4982
a((dp4983
g2
S'whyalla'
p4984
sg4
tp4985
a((dp4986
g2
S'island'
p4987
sg4
tp4988
a((dp4989
g2
S'port'
p4990
sg4
tp4991
a((dp4992
g2
S'school'
p4993
sg4
tp4994
a((dp4995
g2
S'australia'
p4996
sg4
tp4997
a((dp4998
g2
S'australian'
p4999
sg4
tp5000
a((dp5001
g2
S'city'
p5002
sg4
tp5003
a((dp5004
g2
S'south'
p5005
sg4
tp5006
a((dp5007
g2
S'bay'
p5008
sg4
tp5009
a((dp5010
g2
S'iron'
p5011
sg4
tp5012
a((dp5013
g2
S'bath'
p5014
sg4
tp5015
a((dp5016
g2
S'city'
p5017
sg4
tp5018
a((dp5019
g2
S'somerset'
p5020
sg4
tp5021
a((dp5022
g2
S'december'
p5023
sg4
tp5024
a((dp5025
g2
S'which'
p5026
sg4
tp5027
a((dp5028
g2
S'england'
p5029
sg4
tp5030
a((dp5031
g2
S'original'
p5032
sg4
tp5033
a((dp5034
g2
S'archived'
p5035
sg4
tp5036
a((dp5037
g2
S'november'
p5038
sg4
tp5039
a((dp5040
g2
S'were'
p5041
sg4
tp5042
a((dp5043
g2
S'birmingham'
p5044
sg4
tp5045
a((dp5046
g2
S'city'
p5047
sg4
tp5048
a((dp5049
g2
S'2008'
p5050
sg4
tp5051
a((dp5052
g2
S'\xe2'
p5053
sg4
tp5054
a((dp5055
g2
S'june'
p5056
sg4
tp5057
a((dp5058
g2
S'council'
p5059
sg4
tp5060
a((dp5061
g2
S'centre'
p5062
sg4
tp5063
a((dp5064
g2
S'west'
p5065
sg4
tp5066
a((dp5067
g2
S'midlands'
p5068
sg4
tp5069
a((dp5070
g2
S'history'
p5071
sg4
tp5072
a((dp5073
g2
S'bradford'
p5074
sg4
tp5075
a((dp5076
g2
S'city'
p5077
sg4
tp5078
a((dp5079
g2
S'statistics'
p5080
sg4
tp5081
a((dp5082
g2
S'neighbourhood'
p5083
sg4
tp5084
a((dp5085
g2
S'uk'
p5086
sg4
tp5087
a((dp5088
g2
S'17'
p5089
sg4
tp5090
a((dp5091
g2
S'july'
p5092
sg4
tp5093
a((dp5094
g2
S'yorkshire'
p5095
sg4
tp5096
a((dp5097
g2
S'district'
p5098
sg4
tp5099
a((dp5100
g2
S'gov'
p5101
sg4
tp5102
a((dp5103
g2
S'brighton'
p5104
sg4
tp5105
a((dp5106
g2
S'hove'
p5107
sg4
tp5108
a((dp5109
g2
S'east'
p5110
sg4
tp5111
a((dp5112
g2
S'city'
p5113
sg4
tp5114
a((dp5115
g2
S'c'
p5116
sg4
tp5117
a((dp5118
g2
S'south'
p5119
sg4
tp5120
a((dp5121
g2
S'sussex'
p5122
sg4
tp5123
a((dp5124
g2
S'council'
p5125
sg4
tp5126
a((dp5127
g2
S'england'
p5128
sg4
tp5129
a((dp5130
g2
S'local'
p5131
sg4
tp5132
a((dp5133
g2
S'bristol'
p5134
sg4
tp5135
a((dp5136
g2
S'city'
p5137
sg4
tp5138
a((dp5139
g2
S'march'
p5140
sg4
tp5141
a((dp5142
g2
S'\xe2'
p5143
sg4
tp5144
a((dp5145
g2
S'west'
p5146
sg4
tp5147
a((dp5148
g2
S'england'
p5149
sg4
tp5150
a((dp5151
g2
S'january'
p5152
sg4
tp5153
a((dp5154
g2
S'june'
p5155
sg4
tp5156
a((dp5157
g2
S'27'
p5158
sg4
tp5159
a((dp5160
g2
S'council'
p5161
sg4
tp5162
a((dp5163
g2
S'cambridge'
p5164
sg4
tp5165
a((dp5166
g2
S'city'
p5167
sg4
tp5168
a((dp5169
g2
S'university'
p5170
sg4
tp5171
a((dp5172
g2
S'february'
p5173
sg4
tp5174
a((dp5175
g2
S'\xc2'
p5176
sg4
tp5177
a((dp5178
g2
S'cambridgeshire'
p5179
sg4
tp5180
a((dp5181
g2
S'c'
p5182
sg4
tp5183
a((dp5184
g2
S'\xe2'
p5185
sg4
tp5186
a((dp5187
g2
S'centre'
p5188
sg4
tp5189
a((dp5190
g2
S'history'
p5191
sg4
tp5192
a((dp5193
g2
S'canterbury'
p5194
sg4
tp5195
a((dp5196
g2
S'city'
p5197
sg4
tp5198
a((dp5199
g2
S'district'
p5200
sg4
tp5201
a((dp5202
g2
S'\x80\xa2&#'
p5203
sg4
tp5204
a((dp5205
g2
S'\xe2'
p5206
sg4
tp5207
a((dp5208
g2
S'kent'
p5209
sg4
tp5210
a((dp5211
g2
S'england'
p5212
sg4
tp5213
a((dp5214
g2
S'south'
p5215
sg4
tp5216
a((dp5217
g2
S'herne'
p5218
sg4
tp5219
a((dp5220
g2
S'\xd8'
p5221
sg4
tp5222
a((dp5223
g2
S'carlisle'
p5224
sg4
tp5225
a((dp5226
g2
S'city'
p5227
sg4
tp5228
a((dp5229
g2
S'uk'
p5230
sg4
tp5231
a((dp5232
g2
S'june'
p5233
sg4
tp5234
a((dp5235
g2
S'gov'
p5236
sg4
tp5237
a((dp5238
g2
S'council'
p5239
sg4
tp5240
a((dp5241
g2
S'15'
p5242
sg4
tp5243
a((dp5244
g2
S'cumbria'
p5245
sg4
tp5246
a((dp5247
g2
S'england'
p5248
sg4
tp5249
a((dp5250
g2
S'local'
p5251
sg4
tp5252
a((dp5253
g2
S'chelmsford'
p5254
sg4
tp5255
a((dp5256
g2
S'borough'
p5257
sg4
tp5258
a((dp5259
g2
S'south'
p5260
sg4
tp5261
a((dp5262
g2
S'council'
p5263
sg4
tp5264
a((dp5265
g2
S'school'
p5266
sg4
tp5267
a((dp5268
g2
S'city'
p5269
sg4
tp5270
a((dp5271
g2
S'essex'
p5272
sg4
tp5273
a((dp5274
g2
S'great'
p5275
sg4
tp5276
a((dp5277
g2
S'\xe2'
p5278
sg4
tp5279
a((dp5280
g2
S'east'
p5281
sg4
tp5282
a((dp5283
g2
S'chester'
p5284
sg4
tp5285
a((dp5286
g2
S'city'
p5287
sg4
tp5288
a((dp5289
g2
S'2008'
p5290
sg4
tp5291
a((dp5292
g2
S'april'
p5293
sg4
tp5294
a((dp5295
g2
S'born'
p5296
sg4
tp5297
a((dp5298
g2
S'which'
p5299
sg4
tp5300
a((dp5301
g2
S'cheshire'
p5302
sg4
tp5303
a((dp5304
g2
S'roman'
p5305
sg4
tp5306
a((dp5307
g2
S'dee'
p5308
sg4
tp5309
a((dp5310
g2
S'\xe2'
p5311
sg4
tp5312
a((dp5313
g2
S'chichester'
p5314
sg4
tp5315
a((dp5316
g2
S'city'
p5317
sg4
tp5318
a((dp5319
g2
S'west'
p5320
sg4
tp5321
a((dp5322
g2
S'sussex'
p5323
sg4
tp5324
a((dp5325
g2
S'also'
p5326
sg4
tp5327
a((dp5328
g2
S'south'
p5329
sg4
tp5330
a((dp5331
g2
S'east'
p5332
sg4
tp5333
a((dp5334
g2
S'its'
p5335
sg4
tp5336
a((dp5337
g2
S'festival'
p5338
sg4
tp5339
a((dp5340
g2
S'park'
p5341
sg4
tp5342
a((dp5343
g2
S'coventry'
p5344
sg4
tp5345
a((dp5346
g2
S'city'
p5347
sg4
tp5348
a((dp5349
g2
S'miles'
p5350
sg4
tp5351
a((dp5352
g2
S'centre'
p5353
sg4
tp5354
a((dp5355
g2
S'west'
p5356
sg4
tp5357
a((dp5358
g2
S'\xe2'
p5359
sg4
tp5360
a((dp5361
g2
S'also'
p5362
sg4
tp5363
a((dp5364
g2
S'one'
p5365
sg4
tp5366
a((dp5367
g2
S'which'
p5368
sg4
tp5369
a((dp5370
g2
S'midlands'
p5371
sg4
tp5372
a((dp5373
g2
S'derby'
p5374
sg4
tp5375
a((dp5376
g2
S'city'
p5377
sg4
tp5378
a((dp5379
g2
S'centre'
p5380
sg4
tp5381
a((dp5382
g2
S'derbyshire'
p5383
sg4
tp5384
a((dp5385
g2
S'railway'
p5386
sg4
tp5387
a((dp5388
g2
S'east'
p5389
sg4
tp5390
a((dp5391
g2
S'\xe2'
p5392
sg4
tp5393
a((dp5394
g2
S'park'
p5395
sg4
tp5396
a((dp5397
g2
S'its'
p5398
sg4
tp5399
a((dp5400
g2
S'north'
p5401
sg4
tp5402
a((dp5403
g2
S'durham'
p5404
sg4
tp5405
a((dp5406
g2
S'city'
p5407
sg4
tp5408
a((dp5409
g2
S'county'
p5410
sg4
tp5411
a((dp5412
g2
S'university'
p5413
sg4
tp5414
a((dp5415
g2
S'cathedral'
p5416
sg4
tp5417
a((dp5418
g2
S'september'
p5419
sg4
tp5420
a((dp5421
g2
S'bishop'
p5422
sg4
tp5423
a((dp5424
g2
S'castle'
p5425
sg4
tp5426
a((dp5427
g2
S'school'
p5428
sg4
tp5429
a((dp5430
g2
S'rowing'
p5431
sg4
tp5432
a((dp5433
g2
S'ely'
p5434
sg4
tp5435
a((dp5436
g2
S'cambridgeshire'
p5437
sg4
tp5438
a((dp5439
g2
S'november'
p5440
sg4
tp5441
a((dp5442
g2
S'cambridge'
p5443
sg4
tp5444
a((dp5445
g2
S'east'
p5446
sg4
tp5447
a((dp5448
g2
S'england'
p5449
sg4
tp5450
a((dp5451
g2
S'cathedral'
p5452
sg4
tp5453
a((dp5454
g2
S'october'
p5455
sg4
tp5456
a((dp5457
g2
S'which'
p5458
sg4
tp5459
a((dp5460
g2
S'city'
p5461
sg4
tp5462
a((dp5463
g2
S'exeter'
p5464
sg4
tp5465
a((dp5466
g2
S'city'
p5467
sg4
tp5468
a((dp5469
g2
S'devon'
p5470
sg4
tp5471
a((dp5472
g2
S'which'
p5473
sg4
tp5474
a((dp5475
g2
S'west'
p5476
sg4
tp5477
a((dp5478
g2
S'street'
p5479
sg4
tp5480
a((dp5481
g2
S'south'
p5482
sg4
tp5483
a((dp5484
g2
S'also'
p5485
sg4
tp5486
a((dp5487
g2
S'its'
p5488
sg4
tp5489
a((dp5490
g2
S'high'
p5491
sg4
tp5492
a((dp5493
g2
S'gloucester'
p5494
sg4
tp5495
a((dp5496
g2
S'city'
p5497
sg4
tp5498
a((dp5499
g2
S'which'
p5500
sg4
tp5501
a((dp5502
g2
S'gloucestershire'
p5503
sg4
tp5504
a((dp5505
g2
S'severn'
p5506
sg4
tp5507
a((dp5508
g2
S'west'
p5509
sg4
tp5510
a((dp5511
g2
S'england'
p5512
sg4
tp5513
a((dp5514
g2
S'its'
p5515
sg4
tp5516
a((dp5517
g2
S'river'
p5518
sg4
tp5519
a((dp5520
g2
S'centre'
p5521
sg4
tp5522
a((dp5523
g2
S'hereford'
p5524
sg4
tp5525
a((dp5526
g2
S'city'
p5527
sg4
tp5528
a((dp5529
g2
S'herefordshire'
p5530
sg4
tp5531
a((dp5532
g2
S'28'
p5533
sg4
tp5534
a((dp5535
g2
S'school'
p5536
sg4
tp5537
a((dp5538
g2
S'uk'
p5539
sg4
tp5540
a((dp5541
g2
S'new'
p5542
sg4
tp5543
a((dp5544
g2
S'college'
p5545
sg4
tp5546
a((dp5547
g2
S'county'
p5548
sg4
tp5549
a((dp5550
g2
S'which'
p5551
sg4
tp5552
a((dp5553
g2
S'hull'
p5554
sg4
tp5555
a((dp5556
g2
S'city'
p5557
sg4
tp5558
a((dp5559
g2
S'2008'
p5560
sg4
tp5561
a((dp5562
g2
S'east'
p5563
sg4
tp5564
a((dp5565
g2
S'yorkshire'
p5566
sg4
tp5567
a((dp5568
g2
S'humber'
p5569
sg4
tp5570
a((dp5571
g2
S'kingston'
p5572
sg4
tp5573
a((dp5574
g2
S'bbc'
p5575
sg4
tp5576
a((dp5577
g2
S'february'
p5578
sg4
tp5579
a((dp5580
g2
S'council'
p5581
sg4
tp5582
a((dp5583
g2
S'lancaster'
p5584
sg4
tp5585
a((dp5586
g2
S'city'
p5587
sg4
tp5588
a((dp5589
g2
S'morecambe'
p5590
sg4
tp5591
a((dp5592
g2
S'lancashire'
p5593
sg4
tp5594
a((dp5595
g2
S'england'
p5596
sg4
tp5597
a((dp5598
g2
S'population'
p5599
sg4
tp5600
a((dp5601
g2
S'uk'
p5602
sg4
tp5603
a((dp5604
g2
S'council'
p5605
sg4
tp5606
a((dp5607
g2
S'local'
p5608
sg4
tp5609
a((dp5610
g2
S'\xe2'
p5611
sg4
tp5612
a((dp5613
g2
S'leeds'
p5614
sg4
tp5615
a((dp5616
g2
S'city'
p5617
sg4
tp5618
a((dp5619
g2
S'yorkshire'
p5620
sg4
tp5621
a((dp5622
g2
S'district'
p5623
sg4
tp5624
a((dp5625
g2
S'council'
p5626
sg4
tp5627
a((dp5628
g2
S'borough'
p5629
sg4
tp5630
a((dp5631
g2
S'\xe2'
p5632
sg4
tp5633
a((dp5634
g2
S'west'
p5635
sg4
tp5636
a((dp5637
g2
S'local'
p5638
sg4
tp5639
a((dp5640
g2
S'metropolitan'
p5641
sg4
tp5642
a((dp5643
g2
S'leicester'
p5644
sg4
tp5645
a((dp5646
g2
S'city'
p5647
sg4
tp5648
a((dp5649
g2
S'\xe2'
p5650
sg4
tp5651
a((dp5652
g2
S'centre'
p5653
sg4
tp5654
a((dp5655
g2
S'east'
p5656
sg4
tp5657
a((dp5658
g2
S'other'
p5659
sg4
tp5660
a((dp5661
g2
S'were'
p5662
sg4
tp5663
a((dp5664
g2
S'one'
p5665
sg4
tp5666
a((dp5667
g2
S'local'
p5668
sg4
tp5669
a((dp5670
g2
S'uk'
p5671
sg4
tp5672
a((dp5673
g2
S'lichfield'
p5674
sg4
tp5675
a((dp5676
g2
S'city'
p5677
sg4
tp5678
a((dp5679
g2
S'cathedral'
p5680
sg4
tp5681
a((dp5682
g2
S'staffordshire'
p5683
sg4
tp5684
a((dp5685
g2
S'\x80\x94'
p5686
sg4
tp5687
a((dp5688
g2
S'which'
p5689
sg4
tp5690
a((dp5691
g2
S'south'
p5692
sg4
tp5693
a((dp5694
g2
S'\xe2'
p5695
sg4
tp5696
a((dp5697
g2
S'centre'
p5698
sg4
tp5699
a((dp5700
g2
S'street'
p5701
sg4
tp5702
a((dp5703
g2
S'lincoln'
p5704
sg4
tp5705
a((dp5706
g2
S'city'
p5707
sg4
tp5708
a((dp5709
g2
S'\xe2'
p5710
sg4
tp5711
a((dp5712
g2
S'lincolnshire'
p5713
sg4
tp5714
a((dp5715
g2
S'university'
p5716
sg4
tp5717
a((dp5718
g2
S'were'
p5719
sg4
tp5720
a((dp5721
g2
S'cathedral'
p5722
sg4
tp5723
a((dp5724
g2
S'century'
p5725
sg4
tp5726
a((dp5727
g2
S'which'
p5728
sg4
tp5729
a((dp5730
g2
S'c'
p5731
sg4
tp5732
a((dp5733
g2
S'liverpool'
p5734
sg4
tp5735
a((dp5736
g2
S'city'
p5737
sg4
tp5738
a((dp5739
g2
S'\xe2'
p5740
sg4
tp5741
a((dp5742
g2
S'which'
p5743
sg4
tp5744
a((dp5745
g2
S'one'
p5746
sg4
tp5747
a((dp5748
g2
S'also'
p5749
sg4
tp5750
a((dp5751
g2
S'uk'
p5752
sg4
tp5753
a((dp5754
g2
S'first'
p5755
sg4
tp5756
a((dp5757
g2
S'2008'
p5758
sg4
tp5759
a((dp5760
g2
S'centre'
p5761
sg4
tp5762
a((dp5763
g2
S'london'
p5764
sg4
tp5765
a((dp5766
g2
S'city'
p5767
sg4
tp5768
a((dp5769
g2
S'street'
p5770
sg4
tp5771
a((dp5772
g2
S'tower'
p5773
sg4
tp5774
a((dp5775
g2
S'bridge'
p5776
sg4
tp5777
a((dp5778
g2
S'corporation'
p5779
sg4
tp5780
a((dp5781
g2
S'other'
p5782
sg4
tp5783
a((dp5784
g2
S'\xc2'
p5785
sg4
tp5786
a((dp5787
g2
S'\xe2'
p5788
sg4
tp5789
a((dp5790
g2
S'office'
p5791
sg4
tp5792
a((dp5793
g2
S'manchester'
p5794
sg4
tp5795
a((dp5796
g2
S'city'
p5797
sg4
tp5798
a((dp5799
g2
S'\xe2'
p5800
sg4
tp5801
a((dp5802
g2
S'uk'
p5803
sg4
tp5804
a((dp5805
g2
S'greater'
p5806
sg4
tp5807
a((dp5808
g2
S'2008'
p5809
sg4
tp5810
a((dp5811
g2
S'england'
p5812
sg4
tp5813
a((dp5814
g2
S'london'
p5815
sg4
tp5816
a((dp5817
g2
S'history'
p5818
sg4
tp5819
a((dp5820
g2
S'which'
p5821
sg4
tp5822
a((dp5823
g2
S'newcastle'
p5824
sg4
tp5825
a((dp5826
g2
S'city'
p5827
sg4
tp5828
a((dp5829
g2
S'tyne'
p5830
sg4
tp5831
a((dp5832
g2
S'uk'
p5833
sg4
tp5834
a((dp5835
g2
S'north'
p5836
sg4
tp5837
a((dp5838
g2
S'centre'
p5839
sg4
tp5840
a((dp5841
g2
S'\xe2'
p5842
sg4
tp5843
a((dp5844
g2
S'upon'
p5845
sg4
tp5846
a((dp5847
g2
S'east'
p5848
sg4
tp5849
a((dp5850
g2
S'2008'
p5851
sg4
tp5852
a((dp5853
g2
S'norwich'
p5854
sg4
tp5855
a((dp5856
g2
S'city'
p5857
sg4
tp5858
a((dp5859
g2
S'norfolk'
p5860
sg4
tp5861
a((dp5862
g2
S'which'
p5863
sg4
tp5864
a((dp5865
g2
S'\xe2'
p5866
sg4
tp5867
a((dp5868
g2
S'england'
p5869
sg4
tp5870
a((dp5871
g2
S'local'
p5872
sg4
tp5873
a((dp5874
g2
S'its'
p5875
sg4
tp5876
a((dp5877
g2
S'east'
p5878
sg4
tp5879
a((dp5880
g2
S'centre'
p5881
sg4
tp5882
a((dp5883
g2
S'nottingham'
p5884
sg4
tp5885
a((dp5886
g2
S'city'
p5887
sg4
tp5888
a((dp5889
g2
S'citation'
p5890
sg4
tp5891
a((dp5892
g2
S'needed'
p5893
sg4
tp5894
a((dp5895
g2
S'\xe2'
p5896
sg4
tp5897
a((dp5898
g2
S'centre'
p5899
sg4
tp5900
a((dp5901
g2
S'east'
p5902
sg4
tp5903
a((dp5904
g2
S'uk'
p5905
sg4
tp5906
a((dp5907
g2
S'also'
p5908
sg4
tp5909
a((dp5910
g2
S'council'
p5911
sg4
tp5912
a((dp5913
g2
S'oxford'
p5914
sg4
tp5915
a((dp5916
g2
S'city'
p5917
sg4
tp5918
a((dp5919
g2
S'university'
p5920
sg4
tp5921
a((dp5922
g2
S'street'
p5923
sg4
tp5924
a((dp5925
g2
S'\xe2'
p5926
sg4
tp5927
a((dp5928
g2
S'centre'
p5929
sg4
tp5930
a((dp5931
g2
S'london'
p5932
sg4
tp5933
a((dp5934
g2
S'which'
p5935
sg4
tp5936
a((dp5937
g2
S'oxfordshire'
p5938
sg4
tp5939
a((dp5940
g2
S'uk'
p5941
sg4
tp5942
a((dp5943
g2
S'peterborough'
p5944
sg4
tp5945
a((dp5946
g2
S'city'
p5947
sg4
tp5948
a((dp5949
g2
S'east'
p5950
sg4
tp5951
a((dp5952
g2
S'\xe2'
p5953
sg4
tp5954
a((dp5955
g2
S'england'
p5956
sg4
tp5957
a((dp5958
g2
S'cambridgeshire'
p5959
sg4
tp5960
a((dp5961
g2
S'local'
p5962
sg4
tp5963
a((dp5964
g2
S'london'
p5965
sg4
tp5966
a((dp5967
g2
S'which'
p5968
sg4
tp5969
a((dp5970
g2
S'council'
p5971
sg4
tp5972
a((dp5973
g2
S'plymouth'
p5974
sg4
tp5975
a((dp5976
g2
S'2008'
p5977
sg4
tp5978
a((dp5979
g2
S'city'
p5980
sg4
tp5981
a((dp5982
g2
S'council'
p5983
sg4
tp5984
a((dp5985
g2
S'west'
p5986
sg4
tp5987
a((dp5988
g2
S'south'
p5989
sg4
tp5990
a((dp5991
g2
S'devon'
p5992
sg4
tp5993
a((dp5994
g2
S'november'
p5995
sg4
tp5996
a((dp5997
g2
S'\xe2'
p5998
sg4
tp5999
a((dp6000
g2
S'june'
p6001
sg4
tp6002
a((dp6003
g2
S'portsmouth'
p6004
sg4
tp6005
a((dp6006
g2
S'city'
p6007
sg4
tp6008
a((dp6009
g2
S'uk'
p6010
sg4
tp6011
a((dp6012
g2
S'\xe2'
p6013
sg4
tp6014
a((dp6015
g2
S'also'
p6016
sg4
tp6017
a((dp6018
g2
S'which'
p6019
sg4
tp6020
a((dp6021
g2
S'march'
p6022
sg4
tp6023
a((dp6024
g2
S'august'
p6025
sg4
tp6026
a((dp6027
g2
S'south'
p6028
sg4
tp6029
a((dp6030
g2
S'new'
p6031
sg4
tp6032
a((dp6033
g2
S'preston'
p6034
sg4
tp6035
a((dp6036
g2
S'city'
p6037
sg4
tp6038
a((dp6039
g2
S'lancashire'
p6040
sg4
tp6041
a((dp6042
g2
S'district'
p6043
sg4
tp6044
a((dp6045
g2
S'north'
p6046
sg4
tp6047
a((dp6048
g2
S'west'
p6049
sg4
tp6050
a((dp6051
g2
S'ribble'
p6052
sg4
tp6053
a((dp6054
g2
S'council'
p6055
sg4
tp6056
a((dp6057
g2
S'england'
p6058
sg4
tp6059
a((dp6060
g2
S'local'
p6061
sg4
tp6062
a((dp6063
g2
S'ripon'
p6064
sg4
tp6065
a((dp6066
g2
S'city'
p6067
sg4
tp6068
a((dp6069
g2
S'february'
p6070
sg4
tp6071
a((dp6072
g2
S'yorkshire'
p6073
sg4
tp6074
a((dp6075
g2
S'north'
p6076
sg4
tp6077
a((dp6078
g2
S'during'
p6079
sg4
tp6080
a((dp6081
g2
S'were'
p6082
sg4
tp6083
a((dp6084
g2
S'which'
p6085
sg4
tp6086
a((dp6087
g2
S'its'
p6088
sg4
tp6089
a((dp6090
g2
S'also'
p6091
sg4
tp6092
a((dp6093
g2
S'salford'
p6094
sg4
tp6095
a((dp6096
g2
S'2008'
p6097
sg4
tp6098
a((dp6099
g2
S'city'
p6100
sg4
tp6101
a((dp6102
g2
S'manchester'
p6103
sg4
tp6104
a((dp6105
g2
S'uk'
p6106
sg4
tp6107
a((dp6108
g2
S'april'
p6109
sg4
tp6110
a((dp6111
g2
S'gov'
p6112
sg4
tp6113
a((dp6114
g2
S'council'
p6115
sg4
tp6116
a((dp6117
g2
S'borough'
p6118
sg4
tp6119
a((dp6120
g2
S'greater'
p6121
sg4
tp6122
a((dp6123
g2
S'salisbury'
p6124
sg4
tp6125
a((dp6126
g2
S'city'
p6127
sg4
tp6128
a((dp6129
g2
S'wiltshire'
p6130
sg4
tp6131
a((dp6132
g2
S'which'
p6133
sg4
tp6134
a((dp6135
g2
S'cathedral'
p6136
sg4
tp6137
a((dp6138
g2
S'\xe2'
p6139
sg4
tp6140
a((dp6141
g2
S'south'
p6142
sg4
tp6143
a((dp6144
g2
S'sarum'
p6145
sg4
tp6146
a((dp6147
g2
S'\xc2'
p6148
sg4
tp6149
a((dp6150
g2
S'there'
p6151
sg4
tp6152
a((dp6153
g2
S'sheffield'
p6154
sg4
tp6155
a((dp6156
g2
S'city'
p6157
sg4
tp6158
a((dp6159
g2
S'\xe2'
p6160
sg4
tp6161
a((dp6162
g2
S'july'
p6163
sg4
tp6164
a((dp6165
g2
S'yorkshire'
p6166
sg4
tp6167
a((dp6168
g2
S'council'
p6169
sg4
tp6170
a((dp6171
g2
S'also'
p6172
sg4
tp6173
a((dp6174
g2
S'centre'
p6175
sg4
tp6176
a((dp6177
g2
S'national'
p6178
sg4
tp6179
a((dp6180
g2
S'park'
p6181
sg4
tp6182
a((dp6183
g2
S'southampton'
p6184
sg4
tp6185
a((dp6186
g2
S'city'
p6187
sg4
tp6188
a((dp6189
g2
S'which'
p6190
sg4
tp6191
a((dp6192
g2
S'council'
p6193
sg4
tp6194
a((dp6195
g2
S'centre'
p6196
sg4
tp6197
a((dp6198
g2
S'october'
p6199
sg4
tp6200
a((dp6201
g2
S'hampshire'
p6202
sg4
tp6203
a((dp6204
g2
S'19'
p6205
sg4
tp6206
a((dp6207
g2
S'july'
p6208
sg4
tp6209
a((dp6210
g2
S'also'
p6211
sg4
tp6212
a((dp6213
g2
S'albans'
p6214
sg4
tp6215
a((dp6216
g2
S'city'
p6217
sg4
tp6218
a((dp6219
g2
S'district'
p6220
sg4
tp6221
a((dp6222
g2
S'council'
p6223
sg4
tp6224
a((dp6225
g2
S'hertfordshire'
p6226
sg4
tp6227
a((dp6228
g2
S'mi'
p6229
sg4
tp6230
a((dp6231
g2
S'sq'
p6232
sg4
tp6233
a((dp6234
g2
S'parishes'
p6235
sg4
tp6236
a((dp6237
g2
S'hectares'
p6238
sg4
tp6239
a((dp6240
g2
S'unparished'
p6241
sg4
tp6242
a((dp6243
g2
S'stoke'
p6244
sg4
tp6245
a((dp6246
g2
S'trent'
p6247
sg4
tp6248
a((dp6249
g2
S'city'
p6250
sg4
tp6251
a((dp6252
g2
S'staffordshire'
p6253
sg4
tp6254
a((dp6255
g2
S'\xe2'
p6256
sg4
tp6257
a((dp6258
g2
S'may'
p6259
sg4
tp6260
a((dp6261
g2
S'council'
p6262
sg4
tp6263
a((dp6264
g2
S'hanley'
p6265
sg4
tp6266
a((dp6267
g2
S'local'
p6268
sg4
tp6269
a((dp6270
g2
S'north'
p6271
sg4
tp6272
a((dp6273
g2
S'sunderland'
p6274
sg4
tp6275
a((dp6276
g2
S'city'
p6277
sg4
tp6278
a((dp6279
g2
S'north'
p6280
sg4
tp6281
a((dp6282
g2
S'tyne'
p6283
sg4
tp6284
a((dp6285
g2
S'county'
p6286
sg4
tp6287
a((dp6288
g2
S'east'
p6289
sg4
tp6290
a((dp6291
g2
S'metropolitan'
p6292
sg4
tp6293
a((dp6294
g2
S'south'
p6295
sg4
tp6296
a((dp6297
g2
S'also'
p6298
sg4
tp6299
a((dp6300
g2
S'wear'
p6301
sg4
tp6302
a((dp6303
g2
S'truro'
p6304
sg4
tp6305
a((dp6306
g2
S'cornwall'
p6307
sg4
tp6308
a((dp6309
g2
S'city'
p6310
sg4
tp6311
a((dp6312
g2
S'\xe2'
p6313
sg4
tp6314
a((dp6315
g2
S'\x80\x94'
p6316
sg4
tp6317
a((dp6318
g2
S'which'
p6319
sg4
tp6320
a((dp6321
g2
S'cornish'
p6322
sg4
tp6323
a((dp6324
g2
S'its'
p6325
sg4
tp6326
a((dp6327
g2
S'river'
p6328
sg4
tp6329
a((dp6330
g2
S'also'
p6331
sg4
tp6332
a((dp6333
g2
S'wakefield'
p6334
sg4
tp6335
a((dp6336
g2
S'district'
p6337
sg4
tp6338
a((dp6339
g2
S'south'
p6340
sg4
tp6341
a((dp6342
g2
S'west'
p6343
sg4
tp6344
a((dp6345
g2
S'north'
p6346
sg4
tp6347
a((dp6348
g2
S'city'
p6349
sg4
tp6350
a((dp6351
g2
S'yorkshire'
p6352
sg4
tp6353
a((dp6354
g2
S'council'
p6355
sg4
tp6356
a((dp6357
g2
S'east'
p6358
sg4
tp6359
a((dp6360
g2
S'labour'
p6361
sg4
tp6362
a((dp6363
g2
S'wells'
p6364
sg4
tp6365
a((dp6366
g2
S'somerset'
p6367
sg4
tp6368
a((dp6369
g2
S'city'
p6370
sg4
tp6371
a((dp6372
g2
S'england'
p6373
sg4
tp6374
a((dp6375
g2
S'cathedral'
p6376
sg4
tp6377
a((dp6378
g2
S'mendip'
p6379
sg4
tp6380
a((dp6381
g2
S'march'
p6382
sg4
tp6383
a((dp6384
g2
S'west'
p6385
sg4
tp6386
a((dp6387
g2
S'february'
p6388
sg4
tp6389
a((dp6390
g2
S'school'
p6391
sg4
tp6392
a((dp6393
g2
S'london'
p6394
sg4
tp6395
a((dp6396
g2
S'westminster'
p6397
sg4
tp6398
a((dp6399
g2
S'city'
p6400
sg4
tp6401
a((dp6402
g2
S'."'
p6403
sg4
tp6404
a((dp6405
g2
S'office'
p6406
sg4
tp6407
a((dp6408
g2
S'library'
p6409
sg4
tp6410
a((dp6411
g2
S'head'
p6412
sg4
tp6413
a((dp6414
g2
S'street'
p6415
sg4
tp6416
a((dp6417
g2
S'its'
p6418
sg4
tp6419
a((dp6420
g2
S'borough'
p6421
sg4
tp6422
a((dp6423
g2
S'winchester'
p6424
sg4
tp6425
a((dp6426
g2
S'city'
p6427
sg4
tp6428
a((dp6429
g2
S'council'
p6430
sg4
tp6431
a((dp6432
g2
S'hampshire'
p6433
sg4
tp6434
a((dp6435
g2
S'\x80\xa2&#'
p6436
sg4
tp6437
a((dp6438
g2
S'\xe2'
p6439
sg4
tp6440
a((dp6441
g2
S'district'
p6442
sg4
tp6443
a((dp6444
g2
S'elections'
p6445
sg4
tp6446
a((dp6447
g2
S'england'
p6448
sg4
tp6449
a((dp6450
g2
S'non'
p6451
sg4
tp6452
a((dp6453
g2
S'wolverhampton'
p6454
sg4
tp6455
a((dp6456
g2
S'city'
p6457
sg4
tp6458
a((dp6459
g2
S'2008'
p6460
sg4
tp6461
a((dp6462
g2
S'july'
p6463
sg4
tp6464
a((dp6465
g2
S'council'
p6466
sg4
tp6467
a((dp6468
g2
S'station'
p6469
sg4
tp6470
a((dp6471
g2
S'history'
p6472
sg4
tp6473
a((dp6474
g2
S'which'
p6475
sg4
tp6476
a((dp6477
g2
S'west'
p6478
sg4
tp6479
a((dp6480
g2
S'24'
p6481
sg4
tp6482
a((dp6483
g2
S'worcester'
p6484
sg4
tp6485
a((dp6486
g2
S'city'
p6487
sg4
tp6488
a((dp6489
g2
S'\xe2'
p6490
sg4
tp6491
a((dp6492
g2
S'which'
p6493
sg4
tp6494
a((dp6495
g2
S'worcestershire'
p6496
sg4
tp6497
a((dp6498
g2
S'centre'
p6499
sg4
tp6500
a((dp6501
g2
S'festival'
p6502
sg4
tp6503
a((dp6504
g2
S'january'
p6505
sg4
tp6506
a((dp6507
g2
S'street'
p6508
sg4
tp6509
a((dp6510
g2
S'also'
p6511
sg4
tp6512
a((dp6513
g2
S'york'
p6514
sg4
tp6515
a((dp6516
g2
S'city'
p6517
sg4
tp6518
a((dp6519
g2
S'yorkshire'
p6520
sg4
tp6521
a((dp6522
g2
S'\xe2'
p6523
sg4
tp6524
a((dp6525
g2
S'north'
p6526
sg4
tp6527
a((dp6528
g2
S'council'
p6529
sg4
tp6530
a((dp6531
g2
S'june'
p6532
sg4
tp6533
a((dp6534
g2
S'july'
p6535
sg4
tp6536
a((dp6537
g2
S'local'
p6538
sg4
tp6539
a((dp6540
g2
S'may'
p6541
sg4
tp6542
a((dp6543
g2
S'istanbul'
p6544
sg4
tp6545
a((dp6546
g2
S'city'
p6547
sg4
tp6548
a((dp6549
g2
S'\x9f'
p6550
sg4
tp6551
a((dp6552
g2
S'\xb1'
p6553
sg4
tp6554
a((dp6555
g2
S'turkish'
p6556
sg4
tp6557
a((dp6558
g2
S'turkey'
p6559
sg4
tp6560
a((dp6561
g2
S'\xc4'
p6562
sg4
tp6563
a((dp6564
g2
S'its'
p6565
sg4
tp6566
a((dp6567
g2
S'978'
p6568
sg4
tp6569
a((dp6570
g2
S'\xb6'
p6571
sg4
tp6572
a((dp6573
g2
S'moscow'
p6574
sg4
tp6575
a((dp6576
g2
S'\x81'
p6577
sg4
tp6578
a((dp6579
g2
S'\xb8'
p6580
sg4
tp6581
a((dp6582
g2
S'city'
p6583
sg4
tp6584
a((dp6585
g2
S'\xe2'
p6586
sg4
tp6587
a((dp6588
g2
S'russian'
p6589
sg4
tp6590
a((dp6591
g2
S'russia'
p6592
sg4
tp6593
a((dp6594
g2
S'\x82'
p6595
sg4
tp6596
a((dp6597
g2
S'also'
p6598
sg4
tp6599
a((dp6600
g2
S'\xbb'
p6601
sg4
tp6602
a((dp6603
g2
S'petersburg'
p6604
sg4
tp6605
a((dp6606
g2
S'saint'
p6607
sg4
tp6608
a((dp6609
g2
S'\xb8'
p6610
sg4
tp6611
a((dp6612
g2
S'city'
p6613
sg4
tp6614
a((dp6615
g2
S'\x81'
p6616
sg4
tp6617
a((dp6618
g2
S'russian'
p6619
sg4
tp6620
a((dp6621
g2
S'\x82'
p6622
sg4
tp6623
a((dp6624
g2
S'\xbb'
p6625
sg4
tp6626
a((dp6627
g2
S'since'
p6628
sg4
tp6629
a((dp6630
g2
S'\xe2'
p6631
sg4
tp6632
a((dp6633
g2
S'berlin'
p6634
sg4
tp6635
a((dp6636
g2
S'city'
p6637
sg4
tp6638
a((dp6639
g2
S'german'
p6640
sg4
tp6641
a((dp6642
g2
S'august'
p6643
sg4
tp6644
a((dp6645
g2
S'\xe2'
p6646
sg4
tp6647
a((dp6648
g2
S'2008'
p6649
sg4
tp6650
a((dp6651
g2
S',&#'
p6652
sg4
tp6653
a((dp6654
g2
S'germany'
p6655
sg4
tp6656
a((dp6657
g2
S'\xb6'
p6658
sg4
tp6659
a((dp6660
g2
S'\xa4'
p6661
sg4
tp6662
a((dp6663
g2
S'madrid'
p6664
sg4
tp6665
a((dp6666
g2
S'de'
p6667
sg4
tp6668
a((dp6669
g2
S'city'
p6670
sg4
tp6671
a((dp6672
g2
S'\xad'
p6673
sg4
tp6674
a((dp6675
g2
S'\xa1'
p6676
sg4
tp6677
a((dp6678
g2
S'la'
p6679
sg4
tp6680
a((dp6681
g2
S'\xe2'
p6682
sg4
tp6683
a((dp6684
g2
S'spanish'
p6685
sg4
tp6686
a((dp6687
g2
S'spain'
p6688
sg4
tp6689
a((dp6690
g2
S'\xa9'
p6691
sg4
tp6692
a((dp6693
g2
S'kiev'
p6694
sg4
tp6695
a((dp6696
g2
S'city'
p6697
sg4
tp6698
a((dp6699
g2
S'\xb8'
p6700
sg4
tp6701
a((dp6702
g2
S'ukrainian'
p6703
sg4
tp6704
a((dp6705
g2
S'\x81'
p6706
sg4
tp6707
a((dp6708
g2
S'\xe2'
p6709
sg4
tp6710
a((dp6711
g2
S'ukraine'
p6712
sg4
tp6713
a((dp6714
g2
S'\x82'
p6715
sg4
tp6716
a((dp6717
g2
S',&#'
p6718
sg4
tp6719
a((dp6720
g2
S'\xbb'
p6721
sg4
tp6722
a((dp6723
g2
S'rome'
p6724
sg4
tp6725
a((dp6726
g2
S'city'
p6727
sg4
tp6728
a((dp6729
g2
S'roman'
p6730
sg4
tp6731
a((dp6732
g2
S',&#'
p6733
sg4
tp6734
a((dp6735
g2
S'italian'
p6736
sg4
tp6737
a((dp6738
g2
S'also'
p6739
sg4
tp6740
a((dp6741
g2
S'which'
p6742
sg4
tp6743
a((dp6744
g2
S'italy'
p6745
sg4
tp6746
a((dp6747
g2
S'its'
p6748
sg4
tp6749
a((dp6750
g2
S'\xe2'
p6751
sg4
tp6752
a((dp6753
g2
S'paris'
p6754
sg4
tp6755
a((dp6756
g2
S'de'
p6757
sg4
tp6758
a((dp6759
g2
S'\xa9'
p6760
sg4
tp6761
a((dp6762
g2
S'city'
p6763
sg4
tp6764
a((dp6765
g2
S'france'
p6766
sg4
tp6767
a((dp6768
g2
S'la'
p6769
sg4
tp6770
a((dp6771
g2
S'french'
p6772
sg4
tp6773
a((dp6774
g2
S'\xc3'
p6775
sg4
tp6776
a((dp6777
g2
S'\xe2'
p6778
sg4
tp6779
a((dp6780
g2
S'saint'
p6781
sg4
tp6782
a((dp6783
g2
S'minsk'
p6784
sg4
tp6785
a((dp6786
g2
S'\x81'
p6787
sg4
tp6788
a((dp6789
g2
S'\xb8'
p6790
sg4
tp6791
a((dp6792
g2
S'city'
p6793
sg4
tp6794
a((dp6795
g2
S'\xe2'
p6796
sg4
tp6797
a((dp6798
g2
S',&#'
p6799
sg4
tp6800
a((dp6801
g2
S'belarus'
p6802
sg4
tp6803
a((dp6804
g2
S'\x82'
p6805
sg4
tp6806
a((dp6807
g2
S'russian'
p6808
sg4
tp6809
a((dp6810
g2
S'belarusian'
p6811
sg4
tp6812
a((dp6813
g2
S'bucharest'
p6814
sg4
tp6815
a((dp6816
g2
S'\x83'
p6817
sg4
tp6818
a((dp6819
g2
S'city'
p6820
sg4
tp6821
a((dp6822
g2
S'\x99'
p6823
sg4
tp6824
a((dp6825
g2
S'romanian'
p6826
sg4
tp6827
a((dp6828
g2
S'romania'
p6829
sg4
tp6830
a((dp6831
g2
S'\x9b'
p6832
sg4
tp6833
a((dp6834
g2
S'\xe2'
p6835
sg4
tp6836
a((dp6837
g2
S',&#'
p6838
sg4
tp6839
a((dp6840
g2
S'which'
p6841
sg4
tp6842
a((dp6843
g2
S'budapest'
p6844
sg4
tp6845
a((dp6846
g2
S'\xa1'
p6847
sg4
tp6848
a((dp6849
g2
S'\xa9'
p6850
sg4
tp6851
a((dp6852
g2
S'city'
p6853
sg4
tp6854
a((dp6855
g2
S'hungarian'
p6856
sg4
tp6857
a((dp6858
g2
S'hungary'
p6859
sg4
tp6860
a((dp6861
g2
S'buda'
p6862
sg4
tp6863
a((dp6864
g2
S',&#'
p6865
sg4
tp6866
a((dp6867
g2
S'\xc3'
p6868
sg4
tp6869
a((dp6870
g2
S'\xe2'
p6871
sg4
tp6872
a((dp6873
g2
S'hamburg'
p6874
sg4
tp6875
a((dp6876
g2
S'german'
p6877
sg4
tp6878
a((dp6879
g2
S'2008'
p6880
sg4
tp6881
a((dp6882
g2
S'city'
p6883
sg4
tp6884
a((dp6885
g2
S'\xe2'
p6886
sg4
tp6887
a((dp6888
g2
S'germany'
p6889
sg4
tp6890
a((dp6891
g2
S'august'
p6892
sg4
tp6893
a((dp6894
g2
S'since'
p6895
sg4
tp6896
a((dp6897
g2
S'states'
p6898
sg4
tp6899
a((dp6900
g2
S'\xb6'
p6901
sg4
tp6902
a((dp6903
g2
S'vienna'
p6904
sg4
tp6905
a((dp6906
g2
S',&#'
p6907
sg4
tp6908
a((dp6909
g2
S'city'
p6910
sg4
tp6911
a((dp6912
g2
S'austria'
p6913
sg4
tp6914
a((dp6915
g2
S'\xe2'
p6916
sg4
tp6917
a((dp6918
g2
S'international'
p6919
sg4
tp6920
a((dp6921
g2
S'which'
p6922
sg4
tp6923
a((dp6924
g2
S'\xb6'
p6925
sg4
tp6926
a((dp6927
g2
S'wien'
p6928
sg4
tp6929
a((dp6930
g2
S'many'
p6931
sg4
tp6932
a((dp6933
g2
S'warsaw'
p6934
sg4
tp6935
a((dp6936
g2
S'city'
p6937
sg4
tp6938
a((dp6939
g2
S'\xe2'
p6940
sg4
tp6941
a((dp6942
g2
S'english'
p6943
sg4
tp6944
a((dp6945
g2
S'\x82'
p6946
sg4
tp6947
a((dp6948
g2
S'polish'
p6949
sg4
tp6950
a((dp6951
g2
S'www'
p6952
sg4
tp6953
a((dp6954
g2
S'2008'
p6955
sg4
tp6956
a((dp6957
g2
S'poland'
p6958
sg4
tp6959
a((dp6960
g2
S'pl'
p6961
sg4
tp6962
a((dp6963
g2
S'belgrade'
p6964
sg4
tp6965
a((dp6966
g2
S'city'
p6967
sg4
tp6968
a((dp6969
g2
S'serbia'
p6970
sg4
tp6971
a((dp6972
g2
S'\x8d'
p6973
sg4
tp6974
a((dp6975
g2
S'serbian'
p6976
sg4
tp6977
a((dp6978
g2
S'july'
p6979
sg4
tp6980
a((dp6981
g2
S'\x87'
p6982
sg4
tp6983
a((dp6984
g2
S'\xa1'
p6985
sg4
tp6986
a((dp6987
g2
S',&#'
p6988
sg4
tp6989
a((dp6990
g2
S'\xe2'
p6991
sg4
tp6992
a((dp6993
g2
S'barcelona'
p6994
sg4
tp6995
a((dp6996
g2
S'de'
p6997
sg4
tp6998
a((dp6999
g2
S'city'
p7000
sg4
tp7001
a((dp7002
g2
S'sant'
p7003
sg4
tp7004
a((dp7005
g2
S'la'
p7006
sg4
tp7007
a((dp7008
g2
S'\xad'
p7009
sg4
tp7010
a((dp7011
g2
S'del'
p7012
sg4
tp7013
a((dp7014
g2
S'c'
p7015
sg4
tp7016
a((dp7017
g2
S'\xe2'
p7018
sg4
tp7019
a((dp7020
g2
S'\xa8'
p7021
sg4
tp7022
a((dp7023
g2
S'kharkiv'
p7024
sg4
tp7025
a((dp7026
g2
S'\xe2'
p7027
sg4
tp7028
a((dp7029
g2
S'\xb8'
p7030
sg4
tp7031
a((dp7032
g2
S'\x81'
p7033
sg4
tp7034
a((dp7035
g2
S'\x96'
p7036
sg4
tp7037
a((dp7038
g2
S'ukrainian'
p7039
sg4
tp7040
a((dp7041
g2
S'\x82'
p7042
sg4
tp7043
a((dp7044
g2
S'city'
p7045
sg4
tp7046
a((dp7047
g2
S'ukraine'
p7048
sg4
tp7049
a((dp7050
g2
S'\x8c'
p7051
sg4
tp7052
a((dp7053
g2
S'munich'
p7054
sg4
tp7055
a((dp7056
g2
S'city'
p7057
sg4
tp7058
a((dp7059
g2
S'\xe2'
p7060
sg4
tp7061
a((dp7062
g2
S'bavaria'
p7063
sg4
tp7064
a((dp7065
g2
S'\xa4'
p7066
sg4
tp7067
a((dp7068
g2
S'german'
p7069
sg4
tp7070
a((dp7071
g2
S'born'
p7072
sg4
tp7073
a((dp7074
g2
S'which'
p7075
sg4
tp7076
a((dp7077
g2
S'germany'
p7078
sg4
tp7079
a((dp7080
g2
S'\xb6'
p7081
sg4
tp7082
a((dp7083
g2
S'milan'
p7084
sg4
tp7085
a((dp7086
g2
S'city'
p7087
sg4
tp7088
a((dp7089
g2
S'italy'
p7090
sg4
tp7091
a((dp7092
g2
S'milano'
p7093
sg4
tp7094
a((dp7095
g2
S'\xe2'
p7096
sg4
tp7097
a((dp7098
g2
S'italian'
p7099
sg4
tp7100
a((dp7101
g2
S'also'
p7102
sg4
tp7103
a((dp7104
g2
S'its'
p7105
sg4
tp7106
a((dp7107
g2
S'most'
p7108
sg4
tp7109
a((dp7110
g2
S'one'
p7111
sg4
tp7112
a((dp7113
g2
S'prague'
p7114
sg4
tp7115
a((dp7116
g2
S'\xa1'
p7117
sg4
tp7118
a((dp7119
g2
S'city'
p7120
sg4
tp7121
a((dp7122
g2
S'\xad'
p7123
sg4
tp7124
a((dp7125
g2
S'czech'
p7126
sg4
tp7127
a((dp7128
g2
S'\xe2'
p7129
sg4
tp7130
a((dp7131
g2
S',&#'
p7132
sg4
tp7133
a((dp7134
g2
S'\x9b'
p7135
sg4
tp7136
a((dp7137
g2
S'\x99'
p7138
sg4
tp7139
a((dp7140
g2
S'also'
p7141
sg4
tp7142
a((dp7143
g2
S'sofia'
p7144
sg4
tp7145
a((dp7146
g2
S'city'
p7147
sg4
tp7148
a((dp7149
g2
S',&#'
p7150
sg4
tp7151
a((dp7152
g2
S'bulgaria'
p7153
sg4
tp7154
a((dp7155
g2
S'bulgarian'
p7156
sg4
tp7157
a((dp7158
g2
S'\xe2'
p7159
sg4
tp7160
a((dp7161
g2
S'\xb8'
p7162
sg4
tp7163
a((dp7164
g2
S'national'
p7165
sg4
tp7166
a((dp7167
g2
S'\x81'
p7168
sg4
tp7169
a((dp7170
g2
S'\x82'
p7171
sg4
tp7172
a((dp7173
g2
S'brussels'
p7174
sg4
tp7175
a((dp7176
g2
S'french'
p7177
sg4
tp7178
a((dp7179
g2
S'city'
p7180
sg4
tp7181
a((dp7182
g2
S',&#'
p7183
sg4
tp7184
a((dp7185
g2
S'capital'
p7186
sg4
tp7187
a((dp7188
g2
S'belgium'
p7189
sg4
tp7190
a((dp7191
g2
S'region'
p7192
sg4
tp7193
a((dp7194
g2
S'dutch'
p7195
sg4
tp7196
a((dp7197
g2
S'de'
p7198
sg4
tp7199
a((dp7200
g2
S'\xa9'
p7201
sg4
tp7202
a((dp7203
g2
S'samara'
p7204
sg4
tp7205
a((dp7206
g2
S'river'
p7207
sg4
tp7208
a((dp7209
g2
S'name'
p7210
sg4
tp7211
a((dp7212
g2
S'\x81'
p7213
sg4
tp7214
a((dp7215
g2
S'disambiguation'
p7216
sg4
tp7217
a((dp7218
g2
S'page'
p7219
sg4
tp7220
a((dp7221
g2
S'pages'
p7222
sg4
tp7223
a((dp7224
g2
S'russia'
p7225
sg4
tp7226
a((dp7227
g2
S'\xd8'
p7228
sg4
tp7229
a((dp7230
g2
S'article'
p7231
sg4
tp7232
a((dp7233
g2
S'\xb8'
p7234
sg4
tp7235
a((dp7236
g2
S'\x81'
p7237
sg4
tp7238
a((dp7239
g2
S'kazan'
p7240
sg4
tp7241
a((dp7242
g2
S'\x82'
p7243
sg4
tp7244
a((dp7245
g2
S'\xbb'
p7246
sg4
tp7247
a((dp7248
g2
S'city'
p7249
sg4
tp7250
a((dp7251
g2
S'\x83'
p7252
sg4
tp7253
a((dp7254
g2
S'\xbf'
p7255
sg4
tp7256
a((dp7257
g2
S'\xe2'
p7258
sg4
tp7259
a((dp7260
g2
S'\xd0\xbd\xd0'
p7261
sg4
tp7262
a((dp7263
g2
S'\xb8'
p7264
sg4
tp7265
a((dp7266
g2
S'\x81'
p7267
sg4
tp7268
a((dp7269
g2
S'\x82'
p7270
sg4
tp7271
a((dp7272
g2
S'ufa'
p7273
sg4
tp7274
a((dp7275
g2
S'\xbb'
p7276
sg4
tp7277
a((dp7278
g2
S'\xe2'
p7279
sg4
tp7280
a((dp7281
g2
S'\x83'
p7282
sg4
tp7283
a((dp7284
g2
S'\xd0\xbe\xd1'
p7285
sg4
tp7286
a((dp7287
g2
S'\xd0\xb5\xd0'
p7288
sg4
tp7289
a((dp7290
g2
S'\xbf'
p7291
sg4
tp7292
a((dp7293
g2
S'cologne'
p7294
sg4
tp7295
a((dp7296
g2
S'city'
p7297
sg4
tp7298
a((dp7299
g2
S'\xb6'
p7300
sg4
tp7301
a((dp7302
g2
S'k\xc3'
p7303
sg4
tp7304
a((dp7305
g2
S'ln'
p7306
sg4
tp7307
a((dp7308
g2
S'german'
p7309
sg4
tp7310
a((dp7311
g2
S'germany'
p7312
sg4
tp7313
a((dp7314
g2
S'de'
p7315
sg4
tp7316
a((dp7317
g2
S'\xe2'
p7318
sg4
tp7319
a((dp7320
g2
S'rhine'
p7321
sg4
tp7322
a((dp7323
g2
S'ontario'
p7324
sS'state'
p7325
tp7326
a((dp7327
g2
S'canada'
p7328
sg7325
tp7329
a((dp7330
g2
S'province'
p7331
sg7325
tp7332
a((dp7333
g2
S'population'
p7334
sg7325
tp7335
a((dp7336
g2
S'\xe2'
p7337
sg7325
tp7338
a((dp7339
g2
S'government'
p7340
sg7325
tp7341
a((dp7342
g2
S'toronto'
p7343
sg7325
tp7344
a((dp7345
g2
S'which'
p7346
sg7325
tp7347
a((dp7348
g2
S'lake'
p7349
sg7325
tp7350
a((dp7351
g2
S'ottawa'
p7352
sg7325
tp7353
a((dp7354
g2
S'\xa9'
p7355
sg7325
tp7356
a((dp7357
g2
S'quebec'
p7358
sg7325
tp7359
a((dp7360
g2
S'qu\xc3'
p7361
sg7325
tp7362
a((dp7363
g2
S'canada'
p7364
sg7325
tp7365
a((dp7366
g2
S'bec'
p7367
sg7325
tp7368
a((dp7369
g2
S'de'
p7370
sg7325
tp7371
a((dp7372
g2
S'french'
p7373
sg7325
tp7374
a((dp7375
g2
S'du'
p7376
sg7325
tp7377
a((dp7378
g2
S'government'
p7379
sg7325
tp7380
a((dp7381
g2
S'canadian'
p7382
sg7325
tp7383
a((dp7384
g2
S'nova'
p7385
sg7325
tp7386
a((dp7387
g2
S'scotia'
p7388
sg7325
tp7389
a((dp7390
g2
S'canada'
p7391
sg7325
tp7392
a((dp7393
g2
S'province'
p7394
sg7325
tp7395
a((dp7396
g2
S'\xb7'
p7397
sg7325
tp7398
a((dp7399
g2
S'\xc2'
p7400
sg7325
tp7401
a((dp7402
g2
S'century'
p7403
sg7325
tp7404
a((dp7405
g2
S'halifax'
p7406
sg7325
tp7407
a((dp7408
g2
S'war'
p7409
sg7325
tp7410
a((dp7411
g2
S'new'
p7412
sg7325
tp7413
a((dp7414
g2
S'new'
p7415
sg7325
tp7416
a((dp7417
g2
S'brunswick'
p7418
sg7325
tp7419
a((dp7420
g2
S'province'
p7421
sg7325
tp7422
a((dp7423
g2
S'john'
p7424
sg7325
tp7425
a((dp7426
g2
S'canada'
p7427
sg7325
tp7428
a((dp7429
g2
S'saint'
p7430
sg7325
tp7431
a((dp7432
g2
S'french'
p7433
sg7325
tp7434
a((dp7435
g2
S'river'
p7436
sg7325
tp7437
a((dp7438
g2
S'canadian'
p7439
sg7325
tp7440
a((dp7441
g2
S'moncton'
p7442
sg7325
tp7443
a((dp7444
g2
S'manitoba'
p7445
sg7325
tp7446
a((dp7447
g2
S'winnipeg'
p7448
sg7325
tp7449
a((dp7450
g2
S'canada'
p7451
sg7325
tp7452
a((dp7453
g2
S'canadian'
p7454
sg7325
tp7455
a((dp7456
g2
S'province'
p7457
sg7325
tp7458
a((dp7459
g2
S'c'
p7460
sg7325
tp7461
a((dp7462
g2
S'\xc2'
p7463
sg7325
tp7464
a((dp7465
g2
S'government'
p7466
sg7325
tp7467
a((dp7468
g2
S'first'
p7469
sg7325
tp7470
a((dp7471
g2
S'university'
p7472
sg7325
tp7473
a((dp7474
g2
S'british'
p7475
sg7325
tp7476
a((dp7477
g2
S'columbia'
p7478
sg7325
tp7479
a((dp7480
g2
S'vancouver'
p7481
sg7325
tp7482
a((dp7483
g2
S'canada'
p7484
sg7325
tp7485
a((dp7486
g2
S'province'
p7487
sg7325
tp7488
a((dp7489
g2
S'bc'
p7490
sg7325
tp7491
a((dp7492
g2
S'which'
p7493
sg7325
tp7494
a((dp7495
g2
S'pacific'
p7496
sg7325
tp7497
a((dp7498
g2
S'government'
p7499
sg7325
tp7500
a((dp7501
g2
S'also'
p7502
sg7325
tp7503
a((dp7504
g2
S'island'
p7505
sg7325
tp7506
a((dp7507
g2
S'prince'
p7508
sg7325
tp7509
a((dp7510
g2
S'edward'
p7511
sg7325
tp7512
a((dp7513
g2
S'canada'
p7514
sg7325
tp7515
a((dp7516
g2
S'province'
p7517
sg7325
tp7518
a((dp7519
g2
S'\xe2'
p7520
sg7325
tp7521
a((dp7522
g2
S'government'
p7523
sg7325
tp7524
a((dp7525
g2
S'charlottetown'
p7526
sg7325
tp7527
a((dp7528
g2
S'new'
p7529
sg7325
tp7530
a((dp7531
g2
S'\x88\x92'
p7532
sg7325
tp7533
a((dp7534
g2
S'saskatchewan'
p7535
sg7325
tp7536
a((dp7537
g2
S'canada'
p7538
sg7325
tp7539
a((dp7540
g2
S'province'
p7541
sg7325
tp7542
a((dp7543
g2
S'canadian'
p7544
sg7325
tp7545
a((dp7546
g2
S'government'
p7547
sg7325
tp7548
a((dp7549
g2
S'north'
p7550
sg7325
tp7551
a((dp7552
g2
S'first'
p7553
sg7325
tp7554
a((dp7555
g2
S'provincial'
p7556
sg7325
tp7557
a((dp7558
g2
S'/-'
p7559
sg7325
tp7560
a((dp7561
g2
S'land'
p7562
sg7325
tp7563
a((dp7564
g2
S'alberta'
p7565
sg7325
tp7566
a((dp7567
g2
S'canada'
p7568
sg7325
tp7569
a((dp7570
g2
S'edmonton'
p7571
sg7325
tp7572
a((dp7573
g2
S'province'
p7574
sg7325
tp7575
a((dp7576
g2
S'\xe2'
p7577
sg7325
tp7578
a((dp7579
g2
S'calgary'
p7580
sg7325
tp7581
a((dp7582
g2
S'population'
p7583
sg7325
tp7584
a((dp7585
g2
S'government'
p7586
sg7325
tp7587
a((dp7588
g2
S'north'
p7589
sg7325
tp7590
a((dp7591
g2
S'\x88\x92'
p7592
sg7325
tp7593
a((dp7594
g2
S'new'
p7595
sg7325
tp7596
a((dp7597
g2
S'jersey'
p7598
sg7325
tp7599
a((dp7600
g2
S'state'
p7601
sg7325
tp7602
a((dp7603
g2
S'county'
p7604
sg7325
tp7605
a((dp7606
g2
S'states'
p7607
sg7325
tp7608
a((dp7609
g2
S'city'
p7610
sg7325
tp7611
a((dp7612
g2
S'\xe2'
p7613
sg7325
tp7614
a((dp7615
g2
S'york'
p7616
sg7325
tp7617
a((dp7618
g2
S'population'
p7619
sg7325
tp7620
a((dp7621
g2
S'united'
p7622
sg7325
tp7623
a((dp7624
g2
S'new'
p7625
sg7325
tp7626
a((dp7627
g2
S'york'
p7628
sg7325
tp7629
a((dp7630
g2
S'state'
p7631
sg7325
tp7632
a((dp7633
g2
S'city'
p7634
sg7325
tp7635
a((dp7636
g2
S'states'
p7637
sg7325
tp7638
a((dp7639
g2
S'\xe2'
p7640
sg7325
tp7641
a((dp7642
g2
S'united'
p7643
sg7325
tp7644
a((dp7645
g2
S'island'
p7646
sg7325
tp7647
a((dp7648
g2
S'national'
p7649
sg7325
tp7650
a((dp7651
g2
S'population'
p7652
sg7325
tp7653
a((dp7654
g2
S'new'
p7655
sg7325
tp7656
a((dp7657
g2
S'hampshire'
p7658
sg7325
tp7659
a((dp7660
g2
S'state'
p7661
sg7325
tp7662
a((dp7663
g2
S'states'
p7664
sg7325
tp7665
a((dp7666
g2
S'u'
p7667
sg7325
tp7668
a((dp7669
g2
S'united'
p7670
sg7325
tp7671
a((dp7672
g2
S'first'
p7673
sg7325
tp7674
a((dp7675
g2
S'american'
p7676
sg7325
tp7677
a((dp7678
g2
S'manchester'
p7679
sg7325
tp7680
a((dp7681
g2
S'\xe2'
p7682
sg7325
tp7683
a((dp7684
g2
S'vermont'
p7685
sg7325
tp7686
a((dp7687
g2
S'state'
p7688
sg7325
tp7689
a((dp7690
g2
S'burlington'
p7691
sg7325
tp7692
a((dp7693
g2
S'\xe2'
p7694
sg7325
tp7695
a((dp7696
g2
S'new'
p7697
sg7325
tp7698
a((dp7699
g2
S'july'
p7700
sg7325
tp7701
a((dp7702
g2
S'states'
p7703
sg7325
tp7704
a((dp7705
g2
S'press'
p7706
sg7325
tp7707
a((dp7708
g2
S';&#'
p7709
sg7325
tp7710
a((dp7711
g2
S'2008'
p7712
sg7325
tp7713
a((dp7714
g2
S'alabama'
p7715
sg7325
tp7716
a((dp7717
g2
S'state'
p7718
sg7325
tp7719
a((dp7720
g2
S'states'
p7721
sg7325
tp7722
a((dp7723
g2
S'birmingham'
p7724
sg7325
tp7725
a((dp7726
g2
S'mobile'
p7727
sg7325
tp7728
a((dp7729
g2
S'university'
p7730
sg7325
tp7731
a((dp7732
g2
S'american'
p7733
sg7325
tp7734
a((dp7735
g2
S'u'
p7736
sg7325
tp7737
a((dp7738
g2
S'september'
p7739
sg7325
tp7740
a((dp7741
g2
S'united'
p7742
sg7325
tp7743
a((dp7744
g2
S'hawaii'
p7745
sg7325
tp7746
a((dp7747
g2
S'\xc2'
p7748
sg7325
tp7749
a((dp7750
g2
S'state'
p7751
sg7325
tp7752
a((dp7753
g2
S'\xbb'
p7754
sg7325
tp7755
a((dp7756
g2
S'hawaiian'
p7757
sg7325
tp7758
a((dp7759
g2
S'\xca'
p7760
sg7325
tp7761
a((dp7762
g2
S'c'
p7763
sg7325
tp7764
a((dp7765
g2
S'islands'
p7766
sg7325
tp7767
a((dp7768
g2
S'states'
p7769
sg7325
tp7770
a((dp7771
g2
S'united'
p7772
sg7325
tp7773
a((dp7774
g2
S'arkansas'
p7775
sg7325
tp7776
a((dp7777
g2
S'state'
p7778
sg7325
tp7779
a((dp7780
g2
S'states'
p7781
sg7325
tp7782
a((dp7783
g2
S'united'
p7784
sg7325
tp7785
a((dp7786
g2
S'little'
p7787
sg7325
tp7788
a((dp7789
g2
S'river'
p7790
sg7325
tp7791
a((dp7792
g2
S'american'
p7793
sg7325
tp7794
a((dp7795
g2
S'rock'
p7796
sg7325
tp7797
a((dp7798
g2
S'national'
p7799
sg7325
tp7800
a((dp7801
g2
S'population'
p7802
sg7325
tp7803
a((dp7804
g2
S'pennsylvania'
p7805
sg7325
tp7806
a((dp7807
g2
S'state'
p7808
sg7325
tp7809
a((dp7810
g2
S'states'
p7811
sg7325
tp7812
a((dp7813
g2
S'new'
p7814
sg7325
tp7815
a((dp7816
g2
S'philadelphia'
p7817
sg7325
tp7818
a((dp7819
g2
S'july'
p7820
sg7325
tp7821
a((dp7822
g2
S'united'
p7823
sg7325
tp7824
a((dp7825
g2
S'31'
p7826
sg7325
tp7827
a((dp7828
g2
S'population'
p7829
sg7325
tp7830
a((dp7831
g2
S'county'
p7832
sg7325
tp7833
a((dp7834
g2
S'maryland'
p7835
sg7325
tp7836
a((dp7837
g2
S'\xc2'
p7838
sg7325
tp7839
a((dp7840
g2
S'c'
p7841
sg7325
tp7842
a((dp7843
g2
S'state'
p7844
sg7325
tp7845
a((dp7846
g2
S'baltimore'
p7847
sg7325
tp7848
a((dp7849
g2
S'states'
p7850
sg7325
tp7851
a((dp7852
g2
S'which'
p7853
sg7325
tp7854
a((dp7855
g2
S'washington'
p7856
sg7325
tp7857
a((dp7858
g2
S'united'
p7859
sg7325
tp7860
a((dp7861
g2
S'\xe2'
p7862
sg7325
tp7863
a((dp7864
g2
S'delaware'
p7865
sg7325
tp7866
a((dp7867
g2
S'state'
p7868
sg7325
tp7869
a((dp7870
g2
S'new'
p7871
sg7325
tp7872
a((dp7873
g2
S'states'
p7874
sg7325
tp7875
a((dp7876
g2
S'united'
p7877
sg7325
tp7878
a((dp7879
g2
S'wilmington'
p7880
sg7325
tp7881
a((dp7882
g2
S'american'
p7883
sg7325
tp7884
a((dp7885
g2
S'\xe2'
p7886
sg7325
tp7887
a((dp7888
g2
S'county'
p7889
sg7325
tp7890
a((dp7891
g2
S'castle'
p7892
sg7325
tp7893
a((dp7894
g2
S'florida'
p7895
sg7325
tp7896
a((dp7897
g2
S'state'
p7898
sg7325
tp7899
a((dp7900
g2
S'states'
p7901
sg7325
tp7902
a((dp7903
g2
S'miami'
p7904
sg7325
tp7905
a((dp7906
g2
S'united'
p7907
sg7325
tp7908
a((dp7909
g2
S'november'
p7910
sg7325
tp7911
a((dp7912
g2
S'american'
p7913
sg7325
tp7914
a((dp7915
g2
S'population'
p7916
sg7325
tp7917
a((dp7918
g2
S'south'
p7919
sg7325
tp7920
a((dp7921
g2
S'tampa'
p7922
sg7325
tp7923
a((dp7924
g2
S'island'
p7925
sg7325
tp7926
a((dp7927
g2
S'rhode'
p7928
sg7325
tp7929
a((dp7930
g2
S'state'
p7931
sg7325
tp7932
a((dp7933
g2
S'providence'
p7934
sg7325
tp7935
a((dp7936
g2
S'new'
p7937
sg7325
tp7938
a((dp7939
g2
S'states'
p7940
sg7325
tp7941
a((dp7942
g2
S'newport'
p7943
sg7325
tp7944
a((dp7945
g2
S'26'
p7946
sg7325
tp7947
a((dp7948
g2
S'first'
p7949
sg7325
tp7950
a((dp7951
g2
S'january'
p7952
sg7325
tp7953
a((dp7954
g2
S'connecticut'
p7955
sg7325
tp7956
a((dp7957
g2
S'state'
p7958
sg7325
tp7959
a((dp7960
g2
S'new'
p7961
sg7325
tp7962
a((dp7963
g2
S'hartford'
p7964
sg7325
tp7965
a((dp7966
g2
S'states'
p7967
sg7325
tp7968
a((dp7969
g2
S'york'
p7970
sg7325
tp7971
a((dp7972
g2
S'haven'
p7973
sg7325
tp7974
a((dp7975
g2
S'american'
p7976
sg7325
tp7977
a((dp7978
g2
S'population'
p7979
sg7325
tp7980
a((dp7981
g2
S'united'
p7982
sg7325
tp7983
a((dp7984
g2
S'indiana'
p7985
sg7325
tp7986
a((dp7987
g2
S'state'
p7988
sg7325
tp7989
a((dp7990
g2
S'states'
p7991
sg7325
tp7992
a((dp7993
g2
S'airport'
p7994
sg7325
tp7995
a((dp7996
g2
S'indianapolis'
p7997
sg7325
tp7998
a((dp7999
g2
S'county'
p8000
sg7325
tp8001
a((dp8002
g2
S'united'
p8003
sg7325
tp8004
a((dp8005
g2
S'population'
p8006
sg7325
tp8007
a((dp8008
g2
S'university'
p8009
sg7325
tp8010
a((dp8011
g2
S'08'
p8012
sg7325
tp8013
a((dp8014
g2
S'ohio'
p8015
sg7325
tp8016
a((dp8017
g2
S'state'
p8018
sg7325
tp8019
a((dp8020
g2
S'states'
p8021
sg7325
tp8022
a((dp8023
g2
S'march'
p8024
sg7325
tp8025
a((dp8026
g2
S'university'
p8027
sg7325
tp8028
a((dp8029
g2
S'united'
p8030
sg7325
tp8031
a((dp8032
g2
S'population'
p8033
sg7325
tp8034
a((dp8035
g2
S'cincinnati'
p8036
sg7325
tp8037
a((dp8038
g2
S'american'
p8039
sg7325
tp8040
a((dp8041
g2
S'cleveland'
p8042
sg7325
tp8043
a((dp8044
g2
S'california'
p8045
sg7325
tp8046
a((dp8047
g2
S'state'
p8048
sg7325
tp8049
a((dp8050
g2
S'san'
p8051
sg7325
tp8052
a((dp8053
g2
S'states'
p8054
sg7325
tp8055
a((dp8056
g2
S'population'
p8057
sg7325
tp8058
a((dp8059
g2
S'united'
p8060
sg7325
tp8061
a((dp8062
g2
S'valley'
p8063
sg7325
tp8064
a((dp8065
g2
S'angeles'
p8066
sg7325
tp8067
a((dp8068
g2
S'los'
p8069
sg7325
tp8070
a((dp8071
g2
S'largest'
p8072
sg7325
tp8073
a((dp8074
g2
S'washington'
p8075
sg7325
tp8076
a((dp8077
g2
S'disambiguation'
p8078
sg7325
tp8079
a((dp8080
g2
S'\x81'
p8081
sg7325
tp8082
a((dp8083
g2
S'states'
p8084
sg7325
tp8085
a((dp8086
g2
S'station'
p8087
sg7325
tp8088
a((dp8089
g2
S'united'
p8090
sg7325
tp8091
a((dp8092
g2
S'\xbb'
p8093
sg7325
tp8094
a((dp8095
g2
S'\xd0\xba\xd0'
p8096
sg7325
tp8097
a((dp8098
g2
S'\xd8'
p8099
sg7325
tp8100
a((dp8101
g2
S'college'
p8102
sg7325
tp8103
a((dp8104
g2
S'arizona'
p8105
sg7325
tp8106
a((dp8107
g2
S'state'
p8108
sg7325
tp8109
a((dp8110
g2
S'phoenix'
p8111
sg7325
tp8112
a((dp8113
g2
S'states'
p8114
sg7325
tp8115
a((dp8116
g2
S'american'
p8117
sg7325
tp8118
a((dp8119
g2
S'\xe2'
p8120
sg7325
tp8121
a((dp8122
g2
S'tucson'
p8123
sg7325
tp8124
a((dp8125
g2
S'u'
p8126
sg7325
tp8127
a((dp8128
g2
S'also'
p8129
sg7325
tp8130
a((dp8131
g2
S'united'
p8132
sg7325
tp8133
a((dp8134
g2
S'illinois'
p8135
sg7325
tp8136
a((dp8137
g2
S'state'
p8138
sg7325
tp8139
a((dp8140
g2
S'chicago'
p8141
sg7325
tp8142
a((dp8143
g2
S'states'
p8144
sg7325
tp8145
a((dp8146
g2
S'american'
p8147
sg7325
tp8148
a((dp8149
g2
S'population'
p8150
sg7325
tp8151
a((dp8152
g2
S'united'
p8153
sg7325
tp8154
a((dp8155
g2
S'area'
p8156
sg7325
tp8157
a((dp8158
g2
S'u'
p8159
sg7325
tp8160
a((dp8161
g2
S'city'
p8162
sg7325
tp8163
a((dp8164
g2
S'michigan'
p8165
sg7325
tp8166
a((dp8167
g2
S'state'
p8168
sg7325
tp8169
a((dp8170
g2
S'detroit'
p8171
sg7325
tp8172
a((dp8173
g2
S'states'
p8174
sg7325
tp8175
a((dp8176
g2
S'u'
p8177
sg7325
tp8178
a((dp8179
g2
S'peninsula'
p8180
sg7325
tp8181
a((dp8182
g2
S'american'
p8183
sg7325
tp8184
a((dp8185
g2
S'largest'
p8186
sg7325
tp8187
a((dp8188
g2
S'population'
p8189
sg7325
tp8190
a((dp8191
g2
S'united'
p8192
sg7325
tp8193
a((dp8194
g2
S'georgia'
p8195
sg7325
tp8196
a((dp8197
g2
S'disambiguation'
p8198
sg7325
tp8199
a((dp8200
g2
S'pages'
p8201
sg7325
tp8202
a((dp8203
g2
S'\xa6'
p8204
sg7325
tp8205
a((dp8206
g2
S'page'
p8207
sg7325
tp8208
a((dp8209
g2
S'song'
p8210
sg7325
tp8211
a((dp8212
g2
S'states'
p8213
sg7325
tp8214
a((dp8215
g2
S'commissioned'
p8216
sg7325
tp8217
a((dp8218
g2
S'film'
p8219
sg7325
tp8220
a((dp8221
g2
S'state'
p8222
sg7325
tp8223
a((dp8224
g2
S'minnesota'
p8225
sg7325
tp8226
a((dp8227
g2
S'state'
p8228
sg7325
tp8229
a((dp8230
g2
S'2008'
p8231
sg7325
tp8232
a((dp8233
g2
S'states'
p8234
sg7325
tp8235
a((dp8236
g2
S'united'
p8237
sg7325
tp8238
a((dp8239
g2
S'april'
p8240
sg7325
tp8241
a((dp8242
g2
S'u'
p8243
sg7325
tp8244
a((dp8245
g2
S'american'
p8246
sg7325
tp8247
a((dp8248
g2
S'paul'
p8249
sg7325
tp8250
a((dp8251
g2
S'national'
p8252
sg7325
tp8253
a((dp8254
g2
S'dakota'
p8255
sg7325
tp8256
a((dp8257
g2
S'south'
p8258
sg7325
tp8259
a((dp8260
g2
S'state'
p8261
sg7325
tp8262
a((dp8263
g2
S'states'
p8264
sg7325
tp8265
a((dp8266
g2
S'2008'
p8267
sg7325
tp8268
a((dp8269
g2
S'population'
p8270
sg7325
tp8271
a((dp8272
g2
S'sioux'
p8273
sg7325
tp8274
a((dp8275
g2
S'united'
p8276
sg7325
tp8277
a((dp8278
g2
S'national'
p8279
sg7325
tp8280
a((dp8281
g2
S'black'
p8282
sg7325
tp8283
a((dp8284
g2
S'dakota'
p8285
sg7325
tp8286
a((dp8287
g2
S'north'
p8288
sg7325
tp8289
a((dp8290
g2
S'state'
p8291
sg7325
tp8292
a((dp8293
g2
S'states'
p8294
sg7325
tp8295
a((dp8296
g2
S'population'
p8297
sg7325
tp8298
a((dp8299
g2
S'u'
p8300
sg7325
tp8301
a((dp8302
g2
S'united'
p8303
sg7325
tp8304
a((dp8305
g2
S'american'
p8306
sg7325
tp8307
a((dp8308
g2
S'also'
p8309
sg7325
tp8310
a((dp8311
g2
S'largest'
p8312
sg7325
tp8313
a((dp8314
g2
S'missouri'
p8315
sg7325
tp8316
a((dp8317
g2
S'state'
p8318
sg7325
tp8319
a((dp8320
g2
S'louis'
p8321
sg7325
tp8322
a((dp8323
g2
S'city'
p8324
sg7325
tp8325
a((dp8326
g2
S'american'
p8327
sg7325
tp8328
a((dp8329
g2
S'states'
p8330
sg7325
tp8331
a((dp8332
g2
S'kansas'
p8333
sg7325
tp8334
a((dp8335
g2
S'\xe2'
p8336
sg7325
tp8337
a((dp8338
g2
S'river'
p8339
sg7325
tp8340
a((dp8341
g2
S'u'
p8342
sg7325
tp8343
a((dp8344
g2
S'virginia'
p8345
sg7325
tp8346
a((dp8347
g2
S'state'
p8348
sg7325
tp8349
a((dp8350
g2
S'2008'
p8351
sg7325
tp8352
a((dp8353
g2
S'states'
p8354
sg7325
tp8355
a((dp8356
g2
S'washington'
p8357
sg7325
tp8358
a((dp8359
g2
S'november'
p8360
sg7325
tp8361
a((dp8362
g2
S'american'
p8363
sg7325
tp8364
a((dp8365
g2
S'united'
p8366
sg7325
tp8367
a((dp8368
g2
S'april'
p8369
sg7325
tp8370
a((dp8371
g2
S'may'
p8372
sg7325
tp8373
a((dp8374
g2
S'virginia'
p8375
sg7325
tp8376
a((dp8377
g2
S'west'
p8378
sg7325
tp8379
a((dp8380
g2
S'state'
p8381
sg7325
tp8382
a((dp8383
g2
S'states'
p8384
sg7325
tp8385
a((dp8386
g2
S'were'
p8387
sg7325
tp8388
a((dp8389
g2
S'new'
p8390
sg7325
tp8391
a((dp8392
g2
S'which'
p8393
sg7325
tp8394
a((dp8395
g2
S'also'
p8396
sg7325
tp8397
a((dp8398
g2
S'american'
p8399
sg7325
tp8400
a((dp8401
g2
S'july'
p8402
sg7325
tp8403
a((dp8404
g2
S'oregon'
p8405
sg7325
tp8406
a((dp8407
g2
S'state'
p8408
sg7325
tp8409
a((dp8410
g2
S'portland'
p8411
sg7325
tp8412
a((dp8413
g2
S'states'
p8414
sg7325
tp8415
a((dp8416
g2
S'population'
p8417
sg7325
tp8418
a((dp8419
g2
S'u'
p8420
sg7325
tp8421
a((dp8422
g2
S'united'
p8423
sg7325
tp8424
a((dp8425
g2
S'\xe2'
p8426
sg7325
tp8427
a((dp8428
g2
S'also'
p8429
sg7325
tp8430
a((dp8431
g2
S'american'
p8432
sg7325
tp8433
a((dp8434
g2
S'massachusetts'
p8435
sg7325
tp8436
a((dp8437
g2
S'boston'
p8438
sg7325
tp8439
a((dp8440
g2
S'state'
p8441
sg7325
tp8442
a((dp8443
g2
S'may'
p8444
sg7325
tp8445
a((dp8446
g2
S'states'
p8447
sg7325
tp8448
a((dp8449
g2
S'new'
p8450
sg7325
tp8451
a((dp8452
g2
S'river'
p8453
sg7325
tp8454
a((dp8455
g2
S'united'
p8456
sg7325
tp8457
a((dp8458
g2
S'population'
p8459
sg7325
tp8460
a((dp8461
g2
S'dead'
p8462
sg7325
tp8463
a((dp8464
g2
S'louisiana'
p8465
sg7325
tp8466
a((dp8467
g2
S'state'
p8468
sg7325
tp8469
a((dp8470
g2
S'new'
p8471
sg7325
tp8472
a((dp8473
g2
S'states'
p8474
sg7325
tp8475
a((dp8476
g2
S'french'
p8477
sg7325
tp8478
a((dp8479
g2
S'orleans'
p8480
sg7325
tp8481
a((dp8482
g2
S'united'
p8483
sg7325
tp8484
a((dp8485
g2
S'u'
p8486
sg7325
tp8487
a((dp8488
g2
S'\xe2'
p8489
sg7325
tp8490
a((dp8491
g2
S'mississippi'
p8492
sg7325
tp8493
a((dp8494
g2
S'maine'
p8495
sg7325
tp8496
a((dp8497
g2
S'state'
p8498
sg7325
tp8499
a((dp8500
g2
S'new'
p8501
sg7325
tp8502
a((dp8503
g2
S'states'
p8504
sg7325
tp8505
a((dp8506
g2
S'portland'
p8507
sg7325
tp8508
a((dp8509
g2
S'set'
p8510
sg7325
tp8511
a((dp8512
g2
S'population'
p8513
sg7325
tp8514
a((dp8515
g2
S'town'
p8516
sg7325
tp8517
a((dp8518
g2
S'united'
p8519
sg7325
tp8520
a((dp8521
g2
S'american'
p8522
sg7325
tp8523
a((dp8524
g2
S'kentucky'
p8525
sg7325
tp8526
a((dp8527
g2
S'state'
p8528
sg7325
tp8529
a((dp8530
g2
S'states'
p8531
sg7325
tp8532
a((dp8533
g2
S'louisville'
p8534
sg7325
tp8535
a((dp8536
g2
S'county'
p8537
sg7325
tp8538
a((dp8539
g2
S'also'
p8540
sg7325
tp8541
a((dp8542
g2
S'population'
p8543
sg7325
tp8544
a((dp8545
g2
S'december'
p8546
sg7325
tp8547
a((dp8548
g2
S'united'
p8549
sg7325
tp8550
a((dp8551
g2
S'river'
p8552
sg7325
tp8553
a((dp8554
g2
S'virginia'
p8555
sg7325
tp8556
a((dp8557
g2
S'state'
p8558
sg7325
tp8559
a((dp8560
g2
S'2008'
p8561
sg7325
tp8562
a((dp8563
g2
S'states'
p8564
sg7325
tp8565
a((dp8566
g2
S'washington'
p8567
sg7325
tp8568
a((dp8569
g2
S'november'
p8570
sg7325
tp8571
a((dp8572
g2
S'american'
p8573
sg7325
tp8574
a((dp8575
g2
S'united'
p8576
sg7325
tp8577
a((dp8578
g2
S'april'
p8579
sg7325
tp8580
a((dp8581
g2
S'may'
p8582
sg7325
tp8583
a((dp8584
g2
S'virginia'
p8585
sg7325
tp8586
a((dp8587
g2
S'west'
p8588
sg7325
tp8589
a((dp8590
g2
S'state'
p8591
sg7325
tp8592
a((dp8593
g2
S'states'
p8594
sg7325
tp8595
a((dp8596
g2
S'were'
p8597
sg7325
tp8598
a((dp8599
g2
S'new'
p8600
sg7325
tp8601
a((dp8602
g2
S'which'
p8603
sg7325
tp8604
a((dp8605
g2
S'also'
p8606
sg7325
tp8607
a((dp8608
g2
S'american'
p8609
sg7325
tp8610
a((dp8611
g2
S'july'
p8612
sg7325
tp8613
a((dp8614
g2
S'oregon'
p8615
sg7325
tp8616
a((dp8617
g2
S'state'
p8618
sg7325
tp8619
a((dp8620
g2
S'portland'
p8621
sg7325
tp8622
a((dp8623
g2
S'states'
p8624
sg7325
tp8625
a((dp8626
g2
S'population'
p8627
sg7325
tp8628
a((dp8629
g2
S'u'
p8630
sg7325
tp8631
a((dp8632
g2
S'united'
p8633
sg7325
tp8634
a((dp8635
g2
S'\xe2'
p8636
sg7325
tp8637
a((dp8638
g2
S'also'
p8639
sg7325
tp8640
a((dp8641
g2
S'american'
p8642
sg7325
tp8643
a((dp8644
g2
S'massachusetts'
p8645
sg7325
tp8646
a((dp8647
g2
S'boston'
p8648
sg7325
tp8649
a((dp8650
g2
S'state'
p8651
sg7325
tp8652
a((dp8653
g2
S'may'
p8654
sg7325
tp8655
a((dp8656
g2
S'states'
p8657
sg7325
tp8658
a((dp8659
g2
S'new'
p8660
sg7325
tp8661
a((dp8662
g2
S'river'
p8663
sg7325
tp8664
a((dp8665
g2
S'united'
p8666
sg7325
tp8667
a((dp8668
g2
S'population'
p8669
sg7325
tp8670
a((dp8671
g2
S'dead'
p8672
sg7325
tp8673
a((dp8674
g2
S'tennessee'
p8675
sg7325
tp8676
a((dp8677
g2
S'state'
p8678
sg7325
tp8679
a((dp8680
g2
S'states'
p8681
sg7325
tp8682
a((dp8683
g2
S'university'
p8684
sg7325
tp8685
a((dp8686
g2
S'nashville'
p8687
sg7325
tp8688
a((dp8689
g2
S'\xe2'
p8690
sg7325
tp8691
a((dp8692
g2
S'national'
p8693
sg7325
tp8694
a((dp8695
g2
S'river'
p8696
sg7325
tp8697
a((dp8698
g2
S'west'
p8699
sg7325
tp8700
a((dp8701
g2
S'college'
p8702
sg7325
tp8703
a((dp8704
g2
S'colorado'
p8705
sg7325
tp8706
a((dp8707
g2
S'!'
p8708
sg7325
tp8709
a((dp8710
g2
S'state'
p8711
sg7325
tp8712
a((dp8713
g2
S'states'
p8714
sg7325
tp8715
a((dp8716
g2
S'denver'
p8717
sg7325
tp8718
a((dp8719
g2
S'national'
p8720
sg7325
tp8721
a((dp8722
g2
S'united'
p8723
sg7325
tp8724
a((dp8725
g2
S'\xe2'
p8726
sg7325
tp8727
a((dp8728
g2
S'city'
p8729
sg7325
tp8730
a((dp8731
g2
S'mountains'
p8732
sg7325
tp8733
a((dp8734
g2
S'idaho'
p8735
sg7325
tp8736
a((dp8737
g2
S'state'
p8738
sg7325
tp8739
a((dp8740
g2
S';%'
p8741
sg7325
tp8742
a((dp8743
g2
S'\xe2'
p8744
sg7325
tp8745
a((dp8746
g2
S'states'
p8747
sg7325
tp8748
a((dp8749
g2
S'\x80\xaf'
p8750
sg7325
tp8751
a((dp8752
g2
S'boise'
p8753
sg7325
tp8754
a((dp8755
g2
S'lake'
p8756
sg7325
tp8757
a((dp8758
g2
S'river'
p8759
sg7325
tp8760
a((dp8761
g2
S'falls'
p8762
sg7325
tp8763
a((dp8764
g2
S'iowa'
p8765
sg7325
tp8766
a((dp8767
g2
S'state'
p8768
sg7325
tp8769
a((dp8770
g2
S'!'
p8771
sg7325
tp8772
a((dp8773
g2
S'city'
p8774
sg7325
tp8775
a((dp8776
g2
S'des'
p8777
sg7325
tp8778
a((dp8779
g2
S'university'
p8780
sg7325
tp8781
a((dp8782
g2
S'states'
p8783
sg7325
tp8784
a((dp8785
g2
S'\xe2'
p8786
sg7325
tp8787
a((dp8788
g2
S'moines'
p8789
sg7325
tp8790
a((dp8791
g2
S'population'
p8792
sg7325
tp8793
a((dp8794
g2
S'mississippi'
p8795
sg7325
tp8796
a((dp8797
g2
S'state'
p8798
sg7325
tp8799
a((dp8800
g2
S'states'
p8801
sg7325
tp8802
a((dp8803
g2
S'were'
p8804
sg7325
tp8805
a((dp8806
g2
S'american'
p8807
sg7325
tp8808
a((dp8809
g2
S'u'
p8810
sg7325
tp8811
a((dp8812
g2
S'united'
p8813
sg7325
tp8814
a((dp8815
g2
S'new'
p8816
sg7325
tp8817
a((dp8818
g2
S'african'
p8819
sg7325
tp8820
a((dp8821
g2
S'population'
p8822
sg7325
tp8823
a((dp8824
g2
S'montana'
p8825
sg7325
tp8826
a((dp8827
g2
S'state'
p8828
sg7325
tp8829
a((dp8830
g2
S'april'
p8831
sg7325
tp8832
a((dp8833
g2
S'national'
p8834
sg7325
tp8835
a((dp8836
g2
S'states'
p8837
sg7325
tp8838
a((dp8839
g2
S'river'
p8840
sg7325
tp8841
a((dp8842
g2
S'great'
p8843
sg7325
tp8844
a((dp8845
g2
S'percent'
p8846
sg7325
tp8847
a((dp8848
g2
S'population'
p8849
sg7325
tp8850
a((dp8851
g2
S'\xe2'
p8852
sg7325
tp8853
a((dp8854
g2
S'nebraska'
p8855
sg7325
tp8856
a((dp8857
g2
S'state'
p8858
sg7325
tp8859
a((dp8860
g2
S'\xe2'
p8861
sg7325
tp8862
a((dp8863
g2
S'states'
p8864
sg7325
tp8865
a((dp8866
g2
S'omaha'
p8867
sg7325
tp8868
a((dp8869
g2
S'population'
p8870
sg7325
tp8871
a((dp8872
g2
S'college'
p8873
sg7325
tp8874
a((dp8875
g2
S'american'
p8876
sg7325
tp8877
a((dp8878
g2
S'united'
p8879
sg7325
tp8880
a((dp8881
g2
S'history'
p8882
sg7325
tp8883
a((dp8884
g2
S'nevada'
p8885
sg7325
tp8886
a((dp8887
g2
S'state'
p8888
sg7325
tp8889
a((dp8890
g2
S'county'
p8891
sg7325
tp8892
a((dp8893
g2
S'las'
p8894
sg7325
tp8895
a((dp8896
g2
S'vegas'
p8897
sg7325
tp8898
a((dp8899
g2
S'states'
p8900
sg7325
tp8901
a((dp8902
g2
S'population'
p8903
sg7325
tp8904
a((dp8905
g2
S'clark'
p8906
sg7325
tp8907
a((dp8908
g2
S';%'
p8909
sg7325
tp8910
a((dp8911
g2
S'city'
p8912
sg7325
tp8913
a((dp8914
g2
S'new'
p8915
sg7325
tp8916
a((dp8917
g2
S'mexico'
p8918
sg7325
tp8919
a((dp8920
g2
S'state'
p8921
sg7325
tp8922
a((dp8923
g2
S'states'
p8924
sg7325
tp8925
a((dp8926
g2
S'2008'
p8927
sg7325
tp8928
a((dp8929
g2
S'american'
p8930
sg7325
tp8931
a((dp8932
g2
S'santa'
p8933
sg7325
tp8934
a((dp8935
g2
S'fe'
p8936
sg7325
tp8937
a((dp8938
g2
S'national'
p8939
sg7325
tp8940
a((dp8941
g2
S'spanish'
p8942
sg7325
tp8943
a((dp8944
g2
S'carolina'
p8945
sg7325
tp8946
a((dp8947
g2
S'north'
p8948
sg7325
tp8949
a((dp8950
g2
S'state'
p8951
sg7325
tp8952
a((dp8953
g2
S'university'
p8954
sg7325
tp8955
a((dp8956
g2
S'american'
p8957
sg7325
tp8958
a((dp8959
g2
S'states'
p8960
sg7325
tp8961
a((dp8962
g2
S'were'
p8963
sg7325
tp8964
a((dp8965
g2
S'college'
p8966
sg7325
tp8967
a((dp8968
g2
S'war'
p8969
sg7325
tp8970
a((dp8971
g2
S'national'
p8972
sg7325
tp8973
a((dp8974
g2
S'carolina'
p8975
sg7325
tp8976
a((dp8977
g2
S'south'
p8978
sg7325
tp8979
a((dp8980
g2
S'state'
p8981
sg7325
tp8982
a((dp8983
g2
S'states'
p8984
sg7325
tp8985
a((dp8986
g2
S'university'
p8987
sg7325
tp8988
a((dp8989
g2
S'charleston'
p8990
sg7325
tp8991
a((dp8992
g2
S'united'
p8993
sg7325
tp8994
a((dp8995
g2
S'college'
p8996
sg7325
tp8997
a((dp8998
g2
S'u'
p8999
sg7325
tp9000
a((dp9001
g2
S'columbia'
p9002
sg7325
tp9003
a((dp9004
g2
S'texas'
p9005
sg7325
tp9006
a((dp9007
g2
S'state'
p9008
sg7325
tp9009
a((dp9010
g2
S'2008'
p9011
sg7325
tp9012
a((dp9013
g2
S'states'
p9014
sg7325
tp9015
a((dp9016
g2
S'university'
p9017
sg7325
tp9018
a((dp9019
g2
S'houston'
p9020
sg7325
tp9021
a((dp9022
g2
S'united'
p9023
sg7325
tp9024
a((dp9025
g2
S'percent'
p9026
sg7325
tp9027
a((dp9028
g2
S'population'
p9029
sg7325
tp9030
a((dp9031
g2
S'\xe2'
p9032
sg7325
tp9033
a((dp9034
g2
S'oklahoma'
p9035
sg7325
tp9036
a((dp9037
g2
S'state'
p9038
sg7325
tp9039
a((dp9040
g2
S'august'
p9041
sg7325
tp9042
a((dp9043
g2
S'tulsa'
p9044
sg7325
tp9045
a((dp9046
g2
S'city'
p9047
sg7325
tp9048
a((dp9049
g2
S'states'
p9050
sg7325
tp9051
a((dp9052
g2
S'american'
p9053
sg7325
tp9054
a((dp9055
g2
S'united'
p9056
sg7325
tp9057
a((dp9058
g2
S'largest'
p9059
sg7325
tp9060
a((dp9061
g2
S'university'
p9062
sg7325
tp9063
a((dp9064
g2
S'wisconsin'
p9065
sg7325
tp9066
a((dp9067
g2
S'state'
p9068
sg7325
tp9069
a((dp9070
g2
S'milwaukee'
p9071
sg7325
tp9072
a((dp9073
g2
S'\xe2'
p9074
sg7325
tp9075
a((dp9076
g2
S'states'
p9077
sg7325
tp9078
a((dp9079
g2
S'american'
p9080
sg7325
tp9081
a((dp9082
g2
S'\x88\x92'
p9083
sg7325
tp9084
a((dp9085
g2
S'history'
p9086
sg7325
tp9087
a((dp9088
g2
S'first'
p9089
sg7325
tp9090
a((dp9091
g2
S'madison'
p9092
sg7325
tp9093
a((dp9094
g2
S'wyoming'
p9095
sg7325
tp9096
a((dp9097
g2
S'state'
p9098
sg7325
tp9099
a((dp9100
g2
S'states'
p9101
sg7325
tp9102
a((dp9103
g2
S'national'
p9104
sg7325
tp9105
a((dp9106
g2
S'population'
p9107
sg7325
tp9108
a((dp9109
g2
S'river'
p9110
sg7325
tp9111
a((dp9112
g2
S'\xe2'
p9113
sg7325
tp9114
a((dp9115
g2
S'united'
p9116
sg7325
tp9117
a((dp9118
g2
S'census'
p9119
sg7325
tp9120
a((dp9121
g2
S'american'
p9122
sg7325
tp9123
a((dp9124
g2
S'karnataka'
p9125
sg7325
tp9126
a((dp9127
g2
S'india'
p9128
sg7325
tp9129
a((dp9130
g2
S'temple'
p9131
sg7325
tp9132
a((dp9133
g2
S'state'
p9134
sg7325
tp9135
a((dp9136
g2
S'kannada'
p9137
sg7325
tp9138
a((dp9139
g2
S'government'
p9140
sg7325
tp9141
a((dp9142
g2
S'bangalore'
p9143
sg7325
tp9144
a((dp9145
g2
S'indian'
p9146
sg7325
tp9147
a((dp9148
g2
S'mysore'
p9149
sg7325
tp9150
a((dp9151
g2
S'hindu'
p9152
sg7325
tp9153
a((dp9154
g2
S'tamil'
p9155
sg7325
tp9156
a((dp9157
g2
S'nadu'
p9158
sg7325
tp9159
a((dp9160
g2
S'india'
p9161
sg7325
tp9162
a((dp9163
g2
S'state'
p9164
sg7325
tp9165
a((dp9166
g2
S'per'
p9167
sg7325
tp9168
a((dp9169
g2
S'cent'
p9170
sg7325
tp9171
a((dp9172
g2
S'chennai'
p9173
sg7325
tp9174
a((dp9175
g2
S'km\xc2\xb2'
p9176
sg7325
tp9177
a((dp9178
g2
S'indian'
p9179
sg7325
tp9180
a((dp9181
g2
S'which'
p9182
sg7325
tp9183
a((dp9184
g2
S'haryana'
p9185
sg7325
tp9186
a((dp9187
g2
S'india'
p9188
sg7325
tp9189
a((dp9190
g2
S'state'
p9191
sg7325
tp9192
a((dp9193
g2
S'\xa4'
p9194
sg7325
tp9195
a((dp9196
g2
S'delhi'
p9197
sg7325
tp9198
a((dp9199
g2
S'district'
p9200
sg7325
tp9201
a((dp9202
g2
S'also'
p9203
sg7325
tp9204
a((dp9205
g2
S'\xe2'
p9206
sg7325
tp9207
a((dp9208
g2
S'punjab'
p9209
sg7325
tp9210
a((dp9211
g2
S'largest'
p9212
sg7325
tp9213
a((dp9214
g2
S'assam'
p9215
sg7325
tp9216
a((dp9217
g2
S'india'
p9218
sg7325
tp9219
a((dp9220
g2
S'guwahati'
p9221
sg7325
tp9222
a((dp9223
g2
S'assamese'
p9224
sg7325
tp9225
a((dp9226
g2
S'also'
p9227
sg7325
tp9228
a((dp9229
g2
S'history'
p9230
sg7325
tp9231
a((dp9232
g2
S'language'
p9233
sg7325
tp9234
a((dp9235
g2
S'university'
p9236
sg7325
tp9237
a((dp9238
g2
S'state'
p9239
sg7325
tp9240
a((dp9241
g2
S'government'
p9242
sg7325
tp9243
a((dp9244
g2
S'gujarat'
p9245
sg7325
tp9246
a((dp9247
g2
S'india'
p9248
sg7325
tp9249
a((dp9250
g2
S'state'
p9251
sg7325
tp9252
a((dp9253
g2
S'gujarati'
p9254
sg7325
tp9255
a((dp9256
g2
S'\xe2'
p9257
sg7325
tp9258
a((dp9259
g2
S'indian'
p9260
sg7325
tp9261
a((dp9262
g2
S'government'
p9263
sg7325
tp9264
a((dp9265
g2
S'which'
p9266
sg7325
tp9267
a((dp9268
g2
S'ahmedabad'
p9269
sg7325
tp9270
a((dp9271
g2
S'one'
p9272
sg7325
tp9273
a((dp9274
g2
S'odisha'
p9275
sg7325
tp9276
a((dp9277
g2
S'oriya'
p9278
sg7325
tp9279
a((dp9280
g2
S'india'
p9281
sg7325
tp9282
a((dp9283
g2
S'state'
p9284
sg7325
tp9285
a((dp9286
g2
S'orissa'
p9287
sg7325
tp9288
a((dp9289
g2
S'also'
p9290
sg7325
tp9291
a((dp9292
g2
S'indian'
p9293
sg7325
tp9294
a((dp9295
g2
S'which'
p9296
sg7325
tp9297
a((dp9298
g2
S'\xac'
p9299
sg7325
tp9300
a((dp9301
g2
S'\xe2'
p9302
sg7325
tp9303
a((dp9304
g2
S'kerala'
p9305
sg7325
tp9306
a((dp9307
g2
S'india'
p9308
sg7325
tp9309
a((dp9310
g2
S'november'
p9311
sg7325
tp9312
a((dp9313
g2
S'978'
p9314
sg7325
tp9315
a((dp9316
g2
S'18'
p9317
sg7325
tp9318
a((dp9319
g2
S'state'
p9320
sg7325
tp9321
a((dp9322
g2
S'81'
p9323
sg7325
tp9324
a((dp9325
g2
S'pp'
p9326
sg7325
tp9327
a((dp9328
g2
S'indian'
p9329
sg7325
tp9330
a((dp9331
g2
S'development'
p9332
sg7325
tp9333
a((dp9334
g2
S'andhra'
p9335
sg7325
tp9336
a((dp9337
g2
S'pradesh'
p9338
sg7325
tp9339
a((dp9340
g2
S'state'
p9341
sg7325
tp9342
a((dp9343
g2
S'india'
p9344
sg7325
tp9345
a((dp9346
g2
S'temple'
p9347
sg7325
tp9348
a((dp9349
g2
S'hyderabad'
p9350
sg7325
tp9351
a((dp9352
g2
S'telugu'
p9353
sg7325
tp9354
a((dp9355
g2
S'telangana'
p9356
sg7325
tp9357
a((dp9358
g2
S'university'
p9359
sg7325
tp9360
a((dp9361
g2
S'\xe2'
p9362
sg7325
tp9363
a((dp9364
g2
S'pradesh'
p9365
sg7325
tp9366
a((dp9367
g2
S'madhya'
p9368
sg7325
tp9369
a((dp9370
g2
S'state'
p9371
sg7325
tp9372
a((dp9373
g2
S'india'
p9374
sg7325
tp9375
a((dp9376
g2
S'bhopal'
p9377
sg7325
tp9378
a((dp9379
g2
S'national'
p9380
sg7325
tp9381
a((dp9382
g2
S'also'
p9383
sg7325
tp9384
a((dp9385
g2
S'indore'
p9386
sg7325
tp9387
a((dp9388
g2
S'gwalior'
p9389
sg7325
tp9390
a((dp9391
g2
S'states'
p9392
sg7325
tp9393
a((dp9394
g2
S'maharashtra'
p9395
sg7325
tp9396
a((dp9397
g2
S'india'
p9398
sg7325
tp9399
a((dp9400
g2
S'state'
p9401
sg7325
tp9402
a((dp9403
g2
S'mumbai'
p9404
sg7325
tp9405
a((dp9406
g2
S'marathi'
p9407
sg7325
tp9408
a((dp9409
g2
S'also'
p9410
sg7325
tp9411
a((dp9412
g2
S'nagpur'
p9413
sg7325
tp9414
a((dp9415
g2
S'indian'
p9416
sg7325
tp9417
a((dp9418
g2
S'government'
p9419
sg7325
tp9420
a((dp9421
g2
S'national'
p9422
sg7325
tp9423
a((dp9424
g2
S'bengal'
p9425
sg7325
tp9426
a((dp9427
g2
S'west'
p9428
sg7325
tp9429
a((dp9430
g2
S'india'
p9431
sg7325
tp9432
a((dp9433
g2
S'state'
p9434
sg7325
tp9435
a((dp9436
g2
S'indian'
p9437
sg7325
tp9438
a((dp9439
g2
S'kolkata'
p9440
sg7325
tp9441
a((dp9442
g2
S'national'
p9443
sg7325
tp9444
a((dp9445
g2
S'university'
p9446
sg7325
tp9447
a((dp9448
g2
S'government'
p9449
sg7325
tp9450
a((dp9451
g2
S'march'
p9452
sg7325
tp9453
a((dp9454
g2
S'tripura'
p9455
sg7325
tp9456
a((dp9457
g2
S'india'
p9458
sg7325
tp9459
a((dp9460
g2
S'state'
p9461
sg7325
tp9462
a((dp9463
g2
S'government'
p9464
sg7325
tp9465
a((dp9466
g2
S'per'
p9467
sg7325
tp9468
a((dp9469
g2
S'\xe2'
p9470
sg7325
tp9471
a((dp9472
g2
S'pdf'
p9473
sg7325
tp9474
a((dp9475
g2
S'cent'
p9476
sg7325
tp9477
a((dp9478
g2
S'april'
p9479
sg7325
tp9480
a((dp9481
g2
S'north'
p9482
sg7325
tp9483
a((dp9484
g2
S'nagaland'
p9485
sg7325
tp9486
a((dp9487
g2
S'state'
p9488
sg7325
tp9489
a((dp9490
g2
S'naga'
p9491
sg7325
tp9492
a((dp9493
g2
S'\xe2'
p9494
sg7325
tp9495
a((dp9496
g2
S'india'
p9497
sg7325
tp9498
a((dp9499
g2
S'kohima'
p9500
sg7325
tp9501
a((dp9502
g2
S'district'
p9503
sg7325
tp9504
a((dp9505
g2
S'tribes'
p9506
sg7325
tp9507
a((dp9508
g2
S'hornbill'
p9509
sg7325
tp9510
a((dp9511
g2
S'population'
p9512
sg7325
tp9513
a((dp9514
g2
S'sikkim'
p9515
sg7325
tp9516
a((dp9517
g2
S'india'
p9518
sg7325
tp9519
a((dp9520
g2
S'state'
p9521
sg7325
tp9522
a((dp9523
g2
S'indian'
p9524
sg7325
tp9525
a((dp9526
g2
S'government'
p9527
sg7325
tp9528
a((dp9529
g2
S'list'
p9530
sg7325
tp9531
a((dp9532
g2
S'june'
p9533
sg7325
tp9534
a((dp9535
g2
S'\xe2'
p9536
sg7325
tp9537
a((dp9538
g2
S'which'
p9539
sg7325
tp9540
a((dp9541
g2
S'also'
p9542
sg7325
tp9543
a((dp9544
g2
S'rajasthan'
p9545
sg7325
tp9546
a((dp9547
g2
S'india'
p9548
sg7325
tp9549
a((dp9550
g2
S'state'
p9551
sg7325
tp9552
a((dp9553
g2
S'jaipur'
p9554
sg7325
tp9555
a((dp9556
g2
S'desert'
p9557
sg7325
tp9558
a((dp9559
g2
S'list'
p9560
sg7325
tp9561
a((dp9562
g2
S'indian'
p9563
sg7325
tp9564
a((dp9565
g2
S'pradesh'
p9566
sg7325
tp9567
a((dp9568
g2
S'region'
p9569
sg7325
tp9570
a((dp9571
g2
S'which'
p9572
sg7325
tp9573
a((dp9574
g2
S'kashmir'
p9575
sg7325
tp9576
a((dp9577
g2
S'jammu'
p9578
sg7325
tp9579
a((dp9580
g2
S'india'
p9581
sg7325
tp9582
a((dp9583
g2
S'state'
p9584
sg7325
tp9585
a((dp9586
g2
S'pakistan'
p9587
sg7325
tp9588
a((dp9589
g2
S'valley'
p9590
sg7325
tp9591
a((dp9592
g2
S'ladakh'
p9593
sg7325
tp9594
a((dp9595
g2
S'\xe2'
p9596
sg7325
tp9597
a((dp9598
g2
S'indian'
p9599
sg7325
tp9600
a((dp9601
g2
S'region'
p9602
sg7325
tp9603
a((dp9604
g2
S'ashmore'
p9605
sg7325
tp9606
a((dp9607
g2
S'australia'
p9608
sg7325
tp9609
a((dp9610
g2
S'islands'
p9611
sg7325
tp9612
a((dp9613
g2
S'reef'
p9614
sg7325
tp9615
a((dp9616
g2
S'cartier'
p9617
sg7325
tp9618
a((dp9619
g2
S'island'
p9620
sg7325
tp9621
a((dp9622
g2
S'territory'
p9623
sg7325
tp9624
a((dp9625
g2
S'australian'
p9626
sg7325
tp9627
a((dp9628
g2
S'reserve'
p9629
sg7325
tp9630
a((dp9631
g2
S'territories'
p9632
sg7325
tp9633
a((dp9634
g2
S'\xbb\xbf'
p9635
sg7325
tp9636
a((dp9637
g2
S'\xef'
p9638
sg7325
tp9639
a((dp9640
g2
S'australian'
p9641
sg7325
tp9642
a((dp9643
g2
S'antarctic'
p9644
sg7325
tp9645
a((dp9646
g2
S'land'
p9647
sg7325
tp9648
a((dp9649
g2
S'territory'
p9650
sg7325
tp9651
a((dp9652
g2
S'australia'
p9653
sg7325
tp9654
a((dp9655
g2
S'antarctica'
p9656
sg7325
tp9657
a((dp9658
g2
S'territorial'
p9659
sg7325
tp9660
a((dp9661
g2
S'\xb2e'
p9662
sg7325
tp9663
a((dp9664
g2
S'act'
p9665
sg7325
tp9666
a((dp9667
g2
S'australian'
p9668
sg7325
tp9669
a((dp9670
g2
S'territory'
p9671
sg7325
tp9672
a((dp9673
g2
S'capital'
p9674
sg7325
tp9675
a((dp9676
g2
S'canberra'
p9677
sg7325
tp9678
a((dp9679
g2
S'government'
p9680
sg7325
tp9681
a((dp9682
g2
S'australia'
p9683
sg7325
tp9684
a((dp9685
g2
S';-'
p9686
sg7325
tp9687
a((dp9688
g2
S'national'
p9689
sg7325
tp9690
a((dp9691
g2
S'suburbs'
p9692
sg7325
tp9693
a((dp9694
g2
S'island'
p9695
sg7325
tp9696
a((dp9697
g2
S'christmas'
p9698
sg7325
tp9699
a((dp9700
g2
S'australia'
p9701
sg7325
tp9702
a((dp9703
g2
S'pulau'
p9704
sg7325
tp9705
a((dp9706
g2
S'islands'
p9707
sg7325
tp9708
a((dp9709
g2
S'australian'
p9710
sg7325
tp9711
a((dp9712
g2
S'territories'
p9713
sg7325
tp9714
a((dp9715
g2
S'government'
p9716
sg7325
tp9717
a((dp9718
g2
S'territory'
p9719
sg7325
tp9720
a((dp9721
g2
S'new'
p9722
sg7325
tp9723
a((dp9724
g2
S'islands'
p9725
sg7325
tp9726
a((dp9727
g2
S'island'
p9728
sg7325
tp9729
a((dp9730
g2
S'cocos'
p9731
sg7325
tp9732
a((dp9733
g2
S'pulau'
p9734
sg7325
tp9735
a((dp9736
g2
S'keeling'
p9737
sg7325
tp9738
a((dp9739
g2
S'australia'
p9740
sg7325
tp9741
a((dp9742
g2
S'australian'
p9743
sg7325
tp9744
a((dp9745
g2
S'territory'
p9746
sg7325
tp9747
a((dp9748
g2
S'territories'
p9749
sg7325
tp9750
a((dp9751
g2
S'south'
p9752
sg7325
tp9753
a((dp9754
g2
S'reef'
p9755
sg7325
tp9756
a((dp9757
g2
S'km'
p9758
sg7325
tp9759
a((dp9760
g2
S'coral'
p9761
sg7325
tp9762
a((dp9763
g2
S'area'
p9764
sg7325
tp9765
a((dp9766
g2
S'islands'
p9767
sg7325
tp9768
a((dp9769
g2
S'reefs'
p9770
sg7325
tp9771
a((dp9772
g2
S'atoll'
p9773
sg7325
tp9774
a((dp9775
g2
S'sea'
p9776
sg7325
tp9777
a((dp9778
g2
S'island'
p9779
sg7325
tp9780
a((dp9781
g2
S'south'
p9782
sg7325
tp9783
a((dp9784
g2
S'island'
p9785
sg7325
tp9786
a((dp9787
g2
S'heard'
p9788
sg7325
tp9789
a((dp9790
g2
S'islands'
p9791
sg7325
tp9792
a((dp9793
g2
S'species'
p9794
sg7325
tp9795
a((dp9796
g2
S'mcdonald'
p9797
sg7325
tp9798
a((dp9799
g2
S'australia'
p9800
sg7325
tp9801
a((dp9802
g2
S'australian'
p9803
sg7325
tp9804
a((dp9805
g2
S'antarctic'
p9806
sg7325
tp9807
a((dp9808
g2
S'have'
p9809
sg7325
tp9810
a((dp9811
g2
S'areas'
p9812
sg7325
tp9813
a((dp9814
g2
S'bay'
p9815
sg7325
tp9816
a((dp9817
g2
S'jervis'
p9818
sg7325
tp9819
a((dp9820
g2
S'territory'
p9821
sg7325
tp9822
a((dp9823
g2
S'act'
p9824
sg7325
tp9825
a((dp9826
g2
S'australia'
p9827
sg7325
tp9828
a((dp9829
g2
S'australian'
p9830
sg7325
tp9831
a((dp9832
g2
S'south'
p9833
sg7325
tp9834
a((dp9835
g2
S'park'
p9836
sg7325
tp9837
a((dp9838
g2
S'territories'
p9839
sg7325
tp9840
a((dp9841
g2
S'island'
p9842
sg7325
tp9843
a((dp9844
g2
S'south'
p9845
sg7325
tp9846
a((dp9847
g2
S'new'
p9848
sg7325
tp9849
a((dp9850
g2
S'wales'
p9851
sg7325
tp9852
a((dp9853
g2
S'sydney'
p9854
sg7325
tp9855
a((dp9856
g2
S'australia'
p9857
sg7325
tp9858
a((dp9859
g2
S'state'
p9860
sg7325
tp9861
a((dp9862
g2
S'nsw'
p9863
sg7325
tp9864
a((dp9865
g2
S'australian'
p9866
sg7325
tp9867
a((dp9868
g2
S'government'
p9869
sg7325
tp9870
a((dp9871
g2
S'national'
p9872
sg7325
tp9873
a((dp9874
g2
S'island'
p9875
sg7325
tp9876
a((dp9877
g2
S'norfolk'
p9878
sg7325
tp9879
a((dp9880
g2
S'islands'
p9881
sg7325
tp9882
a((dp9883
g2
S'australian'
p9884
sg7325
tp9885
a((dp9886
g2
S'australia'
p9887
sg7325
tp9888
a((dp9889
g2
S'new'
p9890
sg7325
tp9891
a((dp9892
g2
S'states'
p9893
sg7325
tp9894
a((dp9895
g2
S'zealand'
p9896
sg7325
tp9897
a((dp9898
g2
S'\x81'
p9899
sg7325
tp9900
a((dp9901
g2
S'territory'
p9902
sg7325
tp9903
a((dp9904
g2
S'territory'
p9905
sg7325
tp9906
a((dp9907
g2
S'northern'
p9908
sg7325
tp9909
a((dp9910
g2
S'australia'
p9911
sg7325
tp9912
a((dp9913
g2
S'darwin'
p9914
sg7325
tp9915
a((dp9916
g2
S'australian'
p9917
sg7325
tp9918
a((dp9919
g2
S'national'
p9920
sg7325
tp9921
a((dp9922
g2
S'government'
p9923
sg7325
tp9924
a((dp9925
g2
S'\xc2'
p9926
sg7325
tp9927
a((dp9928
g2
S'c'
p9929
sg7325
tp9930
a((dp9931
g2
S'population'
p9932
sg7325
tp9933
a((dp9934
g2
S'queensland'
p9935
sg7325
tp9936
a((dp9937
g2
S'australia'
p9938
sg7325
tp9939
a((dp9940
g2
S'state'
p9941
sg7325
tp9942
a((dp9943
g2
S'australian'
p9944
sg7325
tp9945
a((dp9946
g2
S'brisbane'
p9947
sg7325
tp9948
a((dp9949
g2
S'south'
p9950
sg7325
tp9951
a((dp9952
g2
S'coast'
p9953
sg7325
tp9954
a((dp9955
g2
S'government'
p9956
sg7325
tp9957
a((dp9958
g2
S'au'
p9959
sg7325
tp9960
a((dp9961
g2
S'\xc2'
p9962
sg7325
tp9963
a((dp9964
g2
S'australia'
p9965
sg7325
tp9966
a((dp9967
g2
S'south'
p9968
sg7325
tp9969
a((dp9970
g2
S'australian'
p9971
sg7325
tp9972
a((dp9973
g2
S'state'
p9974
sg7325
tp9975
a((dp9976
g2
S'adelaide'
p9977
sg7325
tp9978
a((dp9979
g2
S'government'
p9980
sg7325
tp9981
a((dp9982
g2
S';-'
p9983
sg7325
tp9984
a((dp9985
g2
S'university'
p9986
sg7325
tp9987
a((dp9988
g2
S'island'
p9989
sg7325
tp9990
a((dp9991
g2
S'\xe2'
p9992
sg7325
tp9993
a((dp9994
g2
S'tasmania'
p9995
sg7325
tp9996
a((dp9997
g2
S'state'
p9998
sg7325
tp9999
a((dp10000
g2
S'tasmanian'
p10001
sg7325
tp10002
a((dp10003
g2
S'australia'
p10004
sg7325
tp10005
a((dp10006
g2
S'australian'
p10007
sg7325
tp10008
a((dp10009
g2
S'government'
p10010
sg7325
tp10011
a((dp10012
g2
S'hobart'
p10013
sg7325
tp10014
a((dp10015
g2
S'island'
p10016
sg7325
tp10017
a((dp10018
g2
S'january'
p10019
sg7325
tp10020
a((dp10021
g2
S'also'
p10022
sg7325
tp10023
a((dp10024
g2
S'victoria'
p10025
sg7325
tp10026
a((dp10027
g2
S'melbourne'
p10028
sg7325
tp10029
a((dp10030
g2
S'state'
p10031
sg7325
tp10032
a((dp10033
g2
S'australia'
p10034
sg7325
tp10035
a((dp10036
g2
S'victorian'
p10037
sg7325
tp10038
a((dp10039
g2
S'australian'
p10040
sg7325
tp10041
a((dp10042
g2
S'government'
p10043
sg7325
tp10044
a((dp10045
g2
S'also'
p10046
sg7325
tp10047
a((dp10048
g2
S'than'
p10049
sg7325
tp10050
a((dp10051
g2
S'which'
p10052
sg7325
tp10053
a((dp10054
g2
S'australia'
p10055
sg7325
tp10056
a((dp10057
g2
S'western'
p10058
sg7325
tp10059
a((dp10060
g2
S'state'
p10061
sg7325
tp10062
a((dp10063
g2
S'australian'
p10064
sg7325
tp10065
a((dp10066
g2
S'perth'
p10067
sg7325
tp10068
a((dp10069
g2
S'west'
p10070
sg7325
tp10071
a((dp10072
g2
S'south'
p10073
sg7325
tp10074
a((dp10075
g2
S'2008'
p10076
sg7325
tp10077
a((dp10078
g2
S'government'
p10079
sg7325
tp10080
a((dp10081
g2
S';-'
p10082
sg7325
tp10083
a((dp10084
g2
S'northland'
p10085
sg7325
tp10086
a((dp10087
g2
S'region'
p10088
sg7325
tp10089
a((dp10090
g2
S'\x81'
p10091
sg7325
tp10092
a((dp10093
g2
S'new'
p10094
sg7325
tp10095
a((dp10096
g2
S'zealand'
p10097
sg7325
tp10098
a((dp10099
g2
S'north'
p10100
sg7325
tp10101
a((dp10102
g2
S'population'
p10103
sg7325
tp10104
a((dp10105
g2
S'm\xc4'
p10106
sg7325
tp10107
a((dp10108
g2
S'ori'
p10109
sg7325
tp10110
a((dp10111
g2
S'february'
p10112
sg7325
tp10113
a((dp10114
g2
S'auckland'
p10115
sg7325
tp10116
a((dp10117
g2
S'region'
p10118
sg7325
tp10119
a((dp10120
g2
S'population'
p10121
sg7325
tp10122
a((dp10123
g2
S'council'
p10124
sg7325
tp10125
a((dp10126
g2
S'new'
p10127
sg7325
tp10128
a((dp10129
g2
S'transport'
p10130
sg7325
tp10131
a((dp10132
g2
S'zealand'
p10133
sg7325
tp10134
a((dp10135
g2
S'area'
p10136
sg7325
tp10137
a((dp10138
g2
S'island'
p10139
sg7325
tp10140
a((dp10141
g2
S'south'
p10142
sg7325
tp10143
a((dp10144
g2
S'waikato'
p10145
sg7325
tp10146
a((dp10147
g2
S'district'
p10148
sg7325
tp10149
a((dp10150
g2
S'region'
p10151
sg7325
tp10152
a((dp10153
g2
S'\xe2'
p10154
sg7325
tp10155
a((dp10156
g2
S'\x80\x94'
p10157
sg7325
tp10158
a((dp10159
g2
S'\x81'
p10160
sg7325
tp10161
a((dp10162
g2
S'new'
p10163
sg7325
tp10164
a((dp10165
g2
S'zealand'
p10166
sg7325
tp10167
a((dp10168
g2
S'south'
p10169
sg7325
tp10170
a((dp10171
g2
S'auckland'
p10172
sg7325
tp10173
a((dp10174
g2
S'bay'
p10175
sg7325
tp10176
a((dp10177
g2
S'plenty'
p10178
sg7325
tp10179
a((dp10180
g2
S'region'
p10181
sg7325
tp10182
a((dp10183
g2
S'\x81'
p10184
sg7325
tp10185
a((dp10186
g2
S'new'
p10187
sg7325
tp10188
a((dp10189
g2
S'tauranga'
p10190
sg7325
tp10191
a((dp10192
g2
S'zealand'
p10193
sg7325
tp10194
a((dp10195
g2
S'population'
p10196
sg7325
tp10197
a((dp10198
g2
S'regional'
p10199
sg7325
tp10200
a((dp10201
g2
S'm\xc4'
p10202
sg7325
tp10203
a((dp10204
g2
S'gisborne'
p10205
sg7325
tp10206
a((dp10207
g2
S'region'
p10208
sg7325
tp10209
a((dp10210
g2
S'\x81'
p10211
sg7325
tp10212
a((dp10213
g2
S'new'
p10214
sg7325
tp10215
a((dp10216
g2
S'zealand'
p10217
sg7325
tp10218
a((dp10219
g2
S'population'
p10220
sg7325
tp10221
a((dp10222
g2
S'bay'
p10223
sg7325
tp10224
a((dp10225
g2
S'*'
p10226
sg7325
tp10227
a((dp10228
g2
S'm\xc4'
p10229
sg7325
tp10230
a((dp10231
g2
S'ori'
p10232
sg7325
tp10233
a((dp10234
g2
S'bay'
p10235
sg7325
tp10236
a((dp10237
g2
S'hawke'
p10238
sg7325
tp10239
a((dp10240
g2
S'region'
p10241
sg7325
tp10242
a((dp10243
g2
S'new'
p10244
sg7325
tp10245
a((dp10246
g2
S'zealand'
p10247
sg7325
tp10248
a((dp10249
g2
S'district'
p10250
sg7325
tp10251
a((dp10252
g2
S'napier'
p10253
sg7325
tp10254
a((dp10255
g2
S'\xad'
p10256
sg7325
tp10257
a((dp10258
g2
S'population'
p10259
sg7325
tp10260
a((dp10261
g2
S'\x81'
p10262
sg7325
tp10263
a((dp10264
g2
S'taranaki'
p10265
sg7325
tp10266
a((dp10267
g2
S'new'
p10268
sg7325
tp10269
a((dp10270
g2
S'\x81'
p10271
sg7325
tp10272
a((dp10273
g2
S'plymouth'
p10274
sg7325
tp10275
a((dp10276
g2
S'region'
p10277
sg7325
tp10278
a((dp10279
g2
S'zealand'
p10280
sg7325
tp10281
a((dp10282
g2
S'm\xc4'
p10283
sg7325
tp10284
a((dp10285
g2
S'ori'
p10286
sg7325
tp10287
a((dp10288
g2
S'\xe2'
p10289
sg7325
tp10290
a((dp10291
g2
S'land'
p10292
sg7325
tp10293
a((dp10294
g2
S'region'
p10295
sg7325
tp10296
a((dp10297
g2
S'manawatu'
p10298
sg7325
tp10299
a((dp10300
g2
S'north'
p10301
sg7325
tp10302
a((dp10303
g2
S'wanganui'
p10304
sg7325
tp10305
a((dp10306
g2
S'new'
p10307
sg7325
tp10308
a((dp10309
g2
S'zealand'
p10310
sg7325
tp10311
a((dp10312
g2
S'district'
p10313
sg7325
tp10314
a((dp10315
g2
S'island'
p10316
sg7325
tp10317
a((dp10318
g2
S'river'
p10319
sg7325
tp10320
a((dp10321
g2
S'palmerston'
p10322
sg7325
tp10323
a((dp10324
g2
S'wellington'
p10325
sg7325
tp10326
a((dp10327
g2
S'region'
p10328
sg7325
tp10329
a((dp10330
g2
S'\xe2'
p10331
sg7325
tp10332
a((dp10333
g2
S'regional'
p10334
sg7325
tp10335
a((dp10336
g2
S'new'
p10337
sg7325
tp10338
a((dp10339
g2
S'zealand'
p10340
sg7325
tp10341
a((dp10342
g2
S'auckland'
p10343
sg7325
tp10344
a((dp10345
g2
S'hutt'
p10346
sg7325
tp10347
a((dp10348
g2
S'coast'
p10349
sg7325
tp10350
a((dp10351
g2
S'councillor'
p10352
sg7325
tp10353
a((dp10354
g2
S'tasman'
p10355
sg7325
tp10356
a((dp10357
g2
S'district'
p10358
sg7325
tp10359
a((dp10360
g2
S'new'
p10361
sg7325
tp10362
a((dp10363
g2
S'zealand'
p10364
sg7325
tp10365
a((dp10366
g2
S'region'
p10367
sg7325
tp10368
a((dp10369
g2
S'population'
p10370
sg7325
tp10371
a((dp10372
g2
S'nelson'
p10373
sg7325
tp10374
a((dp10375
g2
S'bay'
p10376
sg7325
tp10377
a((dp10378
g2
S'area'
p10379
sg7325
tp10380
a((dp10381
g2
S'north'
p10382
sg7325
tp10383
a((dp10384
g2
S'nelson'
p10385
sg7325
tp10386
a((dp10387
g2
S'new'
p10388
sg7325
tp10389
a((dp10390
g2
S'zealand'
p10391
sg7325
tp10392
a((dp10393
g2
S'city'
p10394
sg7325
tp10395
a((dp10396
g2
S'tasman'
p10397
sg7325
tp10398
a((dp10399
g2
S'council'
p10400
sg7325
tp10401
a((dp10402
g2
S'company'
p10403
sg7325
tp10404
a((dp10405
g2
S'district'
p10406
sg7325
tp10407
a((dp10408
g2
S'south'
p10409
sg7325
tp10410
a((dp10411
g2
S'nz'
p10412
sg7325
tp10413
a((dp10414
g2
S'marlborough'
p10415
sg7325
tp10416
a((dp10417
g2
S'new'
p10418
sg7325
tp10419
a((dp10420
g2
S'region'
p10421
sg7325
tp10422
a((dp10423
g2
S'zealand'
p10424
sg7325
tp10425
a((dp10426
g2
S'south'
p10427
sg7325
tp10428
a((dp10429
g2
S'wine'
p10430
sg7325
tp10431
a((dp10432
g2
S'bay'
p10433
sg7325
tp10434
a((dp10435
g2
S'blenheim'
p10436
sg7325
tp10437
a((dp10438
g2
S'island'
p10439
sg7325
tp10440
a((dp10441
g2
S'*'
p10442
sg7325
tp10443
a((dp10444
g2
S'west'
p10445
sg7325
tp10446
a((dp10447
g2
S'coast'
p10448
sg7325
tp10449
a((dp10450
g2
S'region'
p10451
sg7325
tp10452
a((dp10453
g2
S'new'
p10454
sg7325
tp10455
a((dp10456
g2
S'zealand'
p10457
sg7325
tp10458
a((dp10459
g2
S'population'
p10460
sg7325
tp10461
a((dp10462
g2
S'westland'
p10463
sg7325
tp10464
a((dp10465
g2
S'\x81'
p10466
sg7325
tp10467
a((dp10468
g2
S'gold'
p10469
sg7325
tp10470
a((dp10471
g2
S'regional'
p10472
sg7325
tp10473
a((dp10474
g2
S'canterbury'
p10475
sg7325
tp10476
a((dp10477
g2
S'region'
p10478
sg7325
tp10479
a((dp10480
g2
S'new'
p10481
sg7325
tp10482
a((dp10483
g2
S'zealand'
p10484
sg7325
tp10485
a((dp10486
g2
S'christchurch'
p10487
sg7325
tp10488
a((dp10489
g2
S'south'
p10490
sg7325
tp10491
a((dp10492
g2
S'district'
p10493
sg7325
tp10494
a((dp10495
g2
S'national'
p10496
sg7325
tp10497
a((dp10498
g2
S'city'
p10499
sg7325
tp10500
a((dp10501
g2
S'province'
p10502
sg7325
tp10503
a((dp10504
g2
S'otago'
p10505
sg7325
tp10506
a((dp10507
g2
S'region'
p10508
sg7325
tp10509
a((dp10510
g2
S'new'
p10511
sg7325
tp10512
a((dp10513
g2
S'zealand'
p10514
sg7325
tp10515
a((dp10516
g2
S'population'
p10517
sg7325
tp10518
a((dp10519
g2
S'dunedin'
p10520
sg7325
tp10521
a((dp10522
g2
S'which'
p10523
sg7325
tp10524
a((dp10525
g2
S'central'
p10526
sg7325
tp10527
a((dp10528
g2
S'south'
p10529
sg7325
tp10530
a((dp10531
g2
S'also'
p10532
sg7325
tp10533
a((dp10534
g2
S'southland'
p10535
sg7325
tp10536
a((dp10537
g2
S'new'
p10538
sg7325
tp10539
a((dp10540
g2
S'zealand'
p10541
sg7325
tp10542
a((dp10543
g2
S'region'
p10544
sg7325
tp10545
a((dp10546
g2
S'which'
p10547
sg7325
tp10548
a((dp10549
g2
S'fiordland'
p10550
sg7325
tp10551
a((dp10552
g2
S'population'
p10553
sg7325
tp10554
a((dp10555
g2
S'invercargill'
p10556
sg7325
tp10557
a((dp10558
g2
S'island'
p10559
sg7325
tp10560
a((dp10561
g2
S'national'
p10562
sg7325
tp10563
a((dp10564
g2
S'\x81'
p10565
sg7325
tp10566
a((dp10567
g2
S'\xb8'
p10568
sg7325
tp10569
a((dp10570
g2
S'\x82'
p10571
sg7325
tp10572
a((dp10573
g2
S'\xbb'
p10574
sg7325
tp10575
a((dp10576
g2
S'\xd0\xb5\xd0'
p10577
sg7325
tp10578
a((dp10579
g2
S'oblast'
p10580
sg7325
tp10581
a((dp10582
g2
S'amur'
p10583
sg7325
tp10584
a((dp10585
g2
S'\x83'
p10586
sg7325
tp10587
a((dp10588
g2
S'\x8f'
p10589
sg7325
tp10590
a((dp10591
g2
S'\xd0\xbe\xd1'
p10592
sg7325
tp10593
a((dp10594
g2
S'\xb8'
p10595
sg7325
tp10596
a((dp10597
g2
S'\x81'
p10598
sg7325
tp10599
a((dp10600
g2
S'\x82'
p10601
sg7325
tp10602
a((dp10603
g2
S'\xbb'
p10604
sg7325
tp10605
a((dp10606
g2
S'arkhangelsk'
p10607
sg7325
tp10608
a((dp10609
g2
S'oblast'
p10610
sg7325
tp10611
a((dp10612
g2
S'\xb4'
p10613
sg7325
tp10614
a((dp10615
g2
S'\xd0\xb5\xd1'
p10616
sg7325
tp10617
a((dp10618
g2
S'\xd0\xbe\xd1'
p10619
sg7325
tp10620
a((dp10621
g2
S'\xd0\xb5\xd0'
p10622
sg7325
tp10623
a((dp10624
g2
S'\x81'
p10625
sg7325
tp10626
a((dp10627
g2
S'\xb8'
p10628
sg7325
tp10629
a((dp10630
g2
S'\x82'
p10631
sg7325
tp10632
a((dp10633
g2
S'\xbb'
p10634
sg7325
tp10635
a((dp10636
g2
S'\xd0\xb5\xd0'
p10637
sg7325
tp10638
a((dp10639
g2
S'\xd0\xbe\xd1'
p10640
sg7325
tp10641
a((dp10642
g2
S'\x8f'
p10643
sg7325
tp10644
a((dp10645
g2
S'\xbf'
p10646
sg7325
tp10647
a((dp10648
g2
S'\xb4'
p10649
sg7325
tp10650
a((dp10651
g2
S'\xd0\xb5\xd1'
p10652
sg7325
tp10653
a((dp10654
g2
S'\x81'
p10655
sg7325
tp10656
a((dp10657
g2
S'\xb8'
p10658
sg7325
tp10659
a((dp10660
g2
S'\xbb'
p10661
sg7325
tp10662
a((dp10663
g2
S'\x82'
p10664
sg7325
tp10665
a((dp10666
g2
S'oblast'
p10667
sg7325
tp10668
a((dp10669
g2
S'\xd0\xb5\xd0'
p10670
sg7325
tp10671
a((dp10672
g2
S'belgorod'
p10673
sg7325
tp10674
a((dp10675
g2
S'\x8f'
p10676
sg7325
tp10677
a((dp10678
g2
S'\xb4'
p10679
sg7325
tp10680
a((dp10681
g2
S'\xd0\xbe\xd1'
p10682
sg7325
tp10683
a((dp10684
g2
S'\x81'
p10685
sg7325
tp10686
a((dp10687
g2
S'\xb8'
p10688
sg7325
tp10689
a((dp10690
g2
S'bryansk'
p10691
sg7325
tp10692
a((dp10693
g2
S'\xbb'
p10694
sg7325
tp10695
a((dp10696
g2
S'oblast'
p10697
sg7325
tp10698
a((dp10699
g2
S'\x82'
p10700
sg7325
tp10701
a((dp10702
g2
S'\xd0\xb5\xd0'
p10703
sg7325
tp10704
a((dp10705
g2
S'\x8f'
p10706
sg7325
tp10707
a((dp10708
g2
S'\xd0\xbe\xd1'
p10709
sg7325
tp10710
a((dp10711
g2
S'\xbf'
p10712
sg7325
tp10713
a((dp10714
g2
S'\x81'
p10715
sg7325
tp10716
a((dp10717
g2
S'\xb8'
p10718
sg7325
tp10719
a((dp10720
g2
S'\xbb'
p10721
sg7325
tp10722
a((dp10723
g2
S'\x82'
p10724
sg7325
tp10725
a((dp10726
g2
S'chelyabinsk'
p10727
sg7325
tp10728
a((dp10729
g2
S'\xd0\xb5\xd0'
p10730
sg7325
tp10731
a((dp10732
g2
S'oblast'
p10733
sg7325
tp10734
a((dp10735
g2
S'\x8f'
p10736
sg7325
tp10737
a((dp10738
g2
S'\xd0\xbe\xd1'
p10739
sg7325
tp10740
a((dp10741
g2
S'\xbf'
p10742
sg7325
tp10743
a((dp10744
g2
S'\x81'
p10745
sg7325
tp10746
a((dp10747
g2
S'\xb8'
p10748
sg7325
tp10749
a((dp10750
g2
S'\xbb'
p10751
sg7325
tp10752
a((dp10753
g2
S'chita'
p10754
sg7325
tp10755
a((dp10756
g2
S'oblast'
p10757
sg7325
tp10758
a((dp10759
g2
S'\xd0\xb5\xd0'
p10760
sg7325
tp10761
a((dp10762
g2
S'\x82'
p10763
sg7325
tp10764
a((dp10765
g2
S'\xbf'
p10766
sg7325
tp10767
a((dp10768
g2
S'population'
p10769
sg7325
tp10770
a((dp10771
g2
S'\x8c'
p10772
sg7325
tp10773
a((dp10774
g2
S'\x81'
p10775
sg7325
tp10776
a((dp10777
g2
S'\xb8'
p10778
sg7325
tp10779
a((dp10780
g2
S'irkutsk'
p10781
sg7325
tp10782
a((dp10783
g2
S'\xbb'
p10784
sg7325
tp10785
a((dp10786
g2
S'\x82'
p10787
sg7325
tp10788
a((dp10789
g2
S'oblast'
p10790
sg7325
tp10791
a((dp10792
g2
S'\xd0\xb5\xd0'
p10793
sg7325
tp10794
a((dp10795
g2
S'\xbf'
p10796
sg7325
tp10797
a((dp10798
g2
S'\x8f'
p10799
sg7325
tp10800
a((dp10801
g2
S'\xb4'
p10802
sg7325
tp10803
a((dp10804
g2
S'\x81'
p10805
sg7325
tp10806
a((dp10807
g2
S'\xb8'
p10808
sg7325
tp10809
a((dp10810
g2
S'\xbb'
p10811
sg7325
tp10812
a((dp10813
g2
S'\x82'
p10814
sg7325
tp10815
a((dp10816
g2
S'\xd0\xb5\xd0'
p10817
sg7325
tp10818
a((dp10819
g2
S'oblast'
p10820
sg7325
tp10821
a((dp10822
g2
S'\x8f'
p10823
sg7325
tp10824
a((dp10825
g2
S'\xbf'
p10826
sg7325
tp10827
a((dp10828
g2
S'\xd0\xbe\xd1'
p10829
sg7325
tp10830
a((dp10831
g2
S'\xb4'
p10832
sg7325
tp10833
a((dp10834
g2
S'\x81'
p10835
sg7325
tp10836
a((dp10837
g2
S'\xb8'
p10838
sg7325
tp10839
a((dp10840
g2
S'\x82'
p10841
sg7325
tp10842
a((dp10843
g2
S'\xbb'
p10844
sg7325
tp10845
a((dp10846
g2
S'kaliningrad'
p10847
sg7325
tp10848
a((dp10849
g2
S'oblast'
p10850
sg7325
tp10851
a((dp10852
g2
S'\xb4'
p10853
sg7325
tp10854
a((dp10855
g2
S'russian'
p10856
sg7325
tp10857
a((dp10858
g2
S'\xd0\xb5\xd0'
p10859
sg7325
tp10860
a((dp10861
g2
S'\xbf'
p10862
sg7325
tp10863
a((dp10864
g2
S'oblast'
p10865
sg7325
tp10866
a((dp10867
g2
S'kaluga'
p10868
sg7325
tp10869
a((dp10870
g2
S'\x81'
p10871
sg7325
tp10872
a((dp10873
g2
S'\xb8'
p10874
sg7325
tp10875
a((dp10876
g2
S'\xe2'
p10877
sg7325
tp10878
a((dp10879
g2
S'\xbb'
p10880
sg7325
tp10881
a((dp10882
g2
S'sources'
p10883
sg7325
tp10884
a((dp10885
g2
S'section'
p10886
sg7325
tp10887
a((dp10888
g2
S'\x82'
p10889
sg7325
tp10890
a((dp10891
g2
S'russian'
p10892
sg7325
tp10893
a((dp10894
g2
S'\x81'
p10895
sg7325
tp10896
a((dp10897
g2
S'\xb8'
p10898
sg7325
tp10899
a((dp10900
g2
S'\xbb'
p10901
sg7325
tp10902
a((dp10903
g2
S'\x82'
p10904
sg7325
tp10905
a((dp10906
g2
S'\xd0\xb5\xd0'
p10907
sg7325
tp10908
a((dp10909
g2
S'oblast'
p10910
sg7325
tp10911
a((dp10912
g2
S'\xbf'
p10913
sg7325
tp10914
a((dp10915
g2
S'\x8f'
p10916
sg7325
tp10917
a((dp10918
g2
S'\xb4'
p10919
sg7325
tp10920
a((dp10921
g2
S'\xd0\xbe\xd1'
p10922
sg7325
tp10923
a((dp10924
g2
S'\x81'
p10925
sg7325
tp10926
a((dp10927
g2
S'\xb8'
p10928
sg7325
tp10929
a((dp10930
g2
S'\xbb'
p10931
sg7325
tp10932
a((dp10933
g2
S'\x82'
p10934
sg7325
tp10935
a((dp10936
g2
S'\xd0\xb5\xd0'
p10937
sg7325
tp10938
a((dp10939
g2
S'\xbf'
p10940
sg7325
tp10941
a((dp10942
g2
S'oblast'
p10943
sg7325
tp10944
a((dp10945
g2
S'\x8f'
p10946
sg7325
tp10947
a((dp10948
g2
S'\xd0\xbe\xd1'
p10949
sg7325
tp10950
a((dp10951
g2
S'\x83'
p10952
sg7325
tp10953
a((dp10954
g2
S'\x81'
p10955
sg7325
tp10956
a((dp10957
g2
S'\xb8'
p10958
sg7325
tp10959
a((dp10960
g2
S'\xbb'
p10961
sg7325
tp10962
a((dp10963
g2
S'\x82'
p10964
sg7325
tp10965
a((dp10966
g2
S'kostroma'
p10967
sg7325
tp10968
a((dp10969
g2
S'\xd0\xb5\xd0'
p10970
sg7325
tp10971
a((dp10972
g2
S'oblast'
p10973
sg7325
tp10974
a((dp10975
g2
S'\xbf'
p10976
sg7325
tp10977
a((dp10978
g2
S'\xd0\xbe\xd1'
p10979
sg7325
tp10980
a((dp10981
g2
S'\x8f'
p10982
sg7325
tp10983
a((dp10984
g2
S'\x81'
p10985
sg7325
tp10986
a((dp10987
g2
S'\xb8'
p10988
sg7325
tp10989
a((dp10990
g2
S'\x82'
p10991
sg7325
tp10992
a((dp10993
g2
S'\xbb'
p10994
sg7325
tp10995
a((dp10996
g2
S'oblast'
p10997
sg7325
tp10998
a((dp10999
g2
S'\xd0\xb5\xd0'
p11000
sg7325
tp11001
a((dp11002
g2
S'\x8f'
p11003
sg7325
tp11004
a((dp11005
g2
S'\xd0\xbe\xd1'
p11006
sg7325
tp11007
a((dp11008
g2
S'\x83'
p11009
sg7325
tp11010
a((dp11011
g2
S'\xbf'
p11012
sg7325
tp11013
a((dp11014
g2
S'\x81'
p11015
sg7325
tp11016
a((dp11017
g2
S'\xb8'
p11018
sg7325
tp11019
a((dp11020
g2
S'oblast'
p11021
sg7325
tp11022
a((dp11023
g2
S'\xbb'
p11024
sg7325
tp11025
a((dp11026
g2
S'\x82'
p11027
sg7325
tp11028
a((dp11029
g2
S'kursk'
p11030
sg7325
tp11031
a((dp11032
g2
S'\xd0\xb5\xd0'
p11033
sg7325
tp11034
a((dp11035
g2
S'\x8f'
p11036
sg7325
tp11037
a((dp11038
g2
S'\xbf'
p11039
sg7325
tp11040
a((dp11041
g2
S'\xd0\xbe\xd1'
p11042
sg7325
tp11043
a.